
 Start         Length     Name                   Class
 0002:01FF8020 000001380H ITCM                   CODE
 0001:02000000 000004000H STATIC_RAM             DATA
 0000:02004000 00008AE50H ARM9                   CODE
 0001:0208EE50 00000E930H ARM9_DATA              DATA
 0001:0209D780 0000B1DC0H ARM9_BSS               BSS
 000E:0217F640 0000028C0H OVL_170                CODE
 0005:02199900 000041740H OVL_167                CODE
 0007:021DDAA0 0000167E0H OVL_168                CODE
 0004:021F42A0 0000001E0H OVL_285                CODE
 0006:021F4480 000007440H OVL_287                CODE
 0003:02FE0000 000004000H SHARED_WORK            DATA
 0001:02FFF000 000001000H SYSTEM                 DATA
 0001:04000000 000004000H ARM9_IOREG             DATA
 0001:05000000 000000800H STD_PALETTE            DATA
 0001:06800000 000098020H VRAM_LCDC              DATA
 000A:06898020 00000693CH OVL_169                CODE
 0001:0689E95C 0000056A4H VRAM_LCDC              DATA


  Address         Publics by Value

 0002:01FF8020       mainRenderer
 0002:01FF8BF0       dma_beginSyncEx
 0002:01FF8C88       CPU_IRQInvoke
 0002:01FF90B0       pWriteStart
 0002:01FF9290       dst
 0001:02000000       HW_ITCM_END
 0001:020000B4       aGame_beacon_searcha
 0001:02000D24       aWih_dwc_c_0
 0001:020010F0       aWih_dwc_c_1
 0000:02004280       SVC_WaitByLoop
 0000:02004350       SVC_SoftReset
 0000:02004800       _start
 0000:020049AC       destp
 0000:02004A00       asm_MemSet32
 0000:02004A14       boot_InitTCM
 0000:02004BB4       boot_BootstrapExec
 0000:02004DF4       sys_uncomp_blz
 0000:02004EB4       asm_HWIsDSi
 0000:02004ED4       asm_MemCpy32Fast
 0000:02004F20       boot_MemSet32Fast
 0000:02005050       aSdkNintendoDwc
 0000:02005094       aSdkNintendoBac
 0000:020050AC       aSdkUbiquitousC
 0000:020050C4       aSdkNintendoWif
 0000:020050F0       aSdkUbiquitousS
 0000:02005108       aSdkNintendoLib
 0000:02005124       main
 0000:020051C4       function
 0000:0200522C       GFLAppIRQHBlank
 0000:02005234       GFLAppIRQVBlank
 0000:02005258       GameUpdateVBlank
 0000:02005264       GameInit
 0000:0200530C       ovlId
 0000:02005328       GameUpdate
 0000:02005348       setMonoSnd
 0000:02005364       SystemInit
 0000:02005410       pTaskArray
 0000:02005420       j_276952D
 0000:02005424       dsi276952D
 0000:02005464       j_2769595
 0000:02005468       dsi2769595
 0000:02005474       j_27694DD
 0000:02005478       dsi27694DD
 0000:02005484       SystemUpdateVBlank
 0000:02005494       dsiJump_2769589
 0000:020054A8       j_2769589
 0000:020054AC       dsi2769589
 0000:020054B8       GFLAppInit
 0000:0200563C       pNarcPathList
 0000:02005644       pSourceFile
 0000:02005648       lineNo
 0000:02005654       GFLAppUpdate
 0000:02005668       nullsub_4
 0000:0200566C       GFL_HBlankTCBUpdate
 0000:02005680       GFL_HBlankTCBAdd
 0000:0200569C       GFL_VBlankExecCallback
 0000:020056B0       GFL_VBlankSetCallback
 0000:020056C8       GFL_VBlankResetCallback
 0000:020056D8       GFL_VBlankUpdate
 0000:020056FC       GFL_VBlankTCBAdd
 0000:02005718       GFL_VBlankGetTCBMgr
 0000:02005724       GFL_RandomInitLC
 0000:0200572C       GFL_RandomInit
 0000:02005748       GFL_RandomLC
 0000:02005784       GFL_RandomLCAlt
 0000:020057B8       GFL_ArcSysGetResourcePath
 0000:020057C4       finishFunc
 0000:020057F0       GFL_SndMute
 0000:020057FC       GFL_SndSetMaxVol
 0000:02005808       GFL_SndSetVolumeControlCallbacks
 0000:02005820       GFL_SndIsVolumeControlCallbackSet
 0000:0200592C       GFL_SndGetLastResID
 0000:02005B80       GFL_SndInit
 0000:02005BC4       j_2704364
 0000:02005BCC       GFL_SndInitCore
 0000:02005C18       GFL_SndUpdate
 0000:02005C9C       GFL_SndBGMGetID
 0000:02005CF0       GFL_IRQCartDataTransferIsEnabled
 0000:02005D08       GFL_SndPlayerSetMuteStateEx
 0000:02005D20       GFL_SndPlayerSetVolumeEx
 0000:02005D44       GFL_SndSeqVerify
 0000:02005D98       GFL_SndBGMPlayCore
 0000:02005DF4       GFL_SndBGMPlay
 0000:02005E10       GFL_SndBGMStop
 0000:02005E54       GFL_SndBGMSetPaused
 0000:02005E68       GFL_SndBGMFadeIn
 0000:02005E74       GFL_SndBGMFadeInEx
 0000:02005EA0       GFL_SndBGMFadeOut
 0000:02005EC0       GFL_SndBGMIsFading
 0000:02005ED4       GFL_SndBGMPush
 0000:02005F08       trackBitMask
 0000:02005F0C       GFL_SndBGMPop
 0000:02005F24       GFL_SndBGMSetChannelMask
 0000:02005F50       GFL_SndBGMSetParams
 0000:02005F94       GFL_SndBGMSetVolume
 0000:02005FA8       GFL_SndBGMIsPlaying
 0000:02006188       GFL_SndResetPlayerStates
 0000:020061B8       GFL_SndSeqGetPlayerIndex
 0000:020061DC       GFL_SEPlayKeepVol
 0000:02006214       GFL_SndSEPlayCore
 0000:02006254       GFL_SndSEPlay
 0000:02006260       GFL_SndSEPlayEx
 0000:02006268       GFL_SndPlayerStop
 0000:02006280       GFL_SndStop
 0000:02006294       GFL_SndPlayerIsActive
 0000:020062A8       GFL_SndPlayerIsActiveAny
 0000:020062C4       GFL_SndIsPlaying
 0000:020062D8       GFL_SndPlayerSetParams
 0000:02006328       speed
 0000:0200632C       GFL_SndPlayerSetVolume
 0000:02006348       GFL_SndThreadProc2
 0000:0200635C       GFL_SndThreadProc1
 0000:020065B0       bankNo
 0000:020065B4       PokeVoice_Init
 0000:02006648       PokeVoice_ReleaseAll
 0000:0200666C       PokeVoice_Update
 0000:020066C0       PokeVoice_IsPlayingAny
 0000:020066E4       PokeVoice_AllocMulti
 0000:02006758       PokeVoice_FreeMulti
 0000:020067A4       PokeVoice_SetMasterVolume
 0000:020067B0       PokeVoice_ResetMasterVolume
 0000:020067BC       PokeVoice_CalcVolume
 0000:020067D8       PokeVoice_AcquireHandle
 0000:02006814       PokeVoice_Reset
 0000:02006840       PokeVoice_ResetEx
 0000:02006850       PokeVoice_LoadWaveArc
 0000:020068D4       numer
 0000:020068D8       PokeVoice_StartPlaybackCore
 0000:020069B8       PokeVoice_ReleaseCore
 0000:020069F4       PokeVoice_Play
 0000:02006A44       PokeVoice_Load
 0000:02006AD4       PokeVoice_StartPlayback
 0000:02006AFC       PokeVoice_AdjustVolume
 0000:02006B5C       PokeVoice_AdjustSpeed
 0000:02006B90       PokeVoice_GetVolume
 0000:02006BAC       PokeVoice_GetSpeed
 0000:02006BCC       PokeVoice_GetSamples
 0000:02006BE8       PokeVoice_GetSampleCount
 0000:02006C04       PokeVoice_GetSampleRate
 0000:02006C24       PokeVoice_Release
 0000:02006C40       PokeVoice_IsPlaying
 0000:02006C50       PokeVoice_ReverseSamples
 0000:02006C70       getResIDFunc
 0000:02006CC8       getWaveInfoFunc
 0000:02006D54       PokeVoice_CreateChatterInfo
 0000:02006D64       setupMic
 0000:02006DE4       j_27047C0
 0000:02006DEC       ampOffFreeBlocks
 0000:02006EE8       BGMInfo_Create
 0000:02006F0C       BGMInfo_Free
 0000:02006F24       BGMInfo_GetISSSubsystem
 0000:02006F4C       BGMInfo_LoadArcData
 0000:02006FC8       GFL_SndStreamInit
 0000:0200700C       GFL_SndStreamFree
 0000:0200703C       GFL_SndStreamUpdate
 0000:02007040       GFL_SndStreamCheckInit
 0000:02007054       GFL_SndStreamPlay
 0000:02007090       GFL_SndStreamStop
 0000:020070A4       GFL_SndStreamIsPlaying
 0000:020070C0       GFL_SndStreamFadeStop
 0000:020070D4       GFL_SndStreamReset
 0000:020070F0       SaveControl_Create
 0000:02007166       jpt_2007164
 0000:020071BE       jpt_20071BC
 0000:020071F8       def_20071BC
 0000:02007210       def_2007164
 0000:020072D4       SaveControl_Free
 0000:020072FC       SaveControl_GetInstance
 0000:02007448       SaveControl_GetBlockPtr
 0000:02007460       SaveControl_GetStatus
 0000:02007468       SaveControl_IsDataAlreadyPresent
 0000:02007534       freeIntermediateSaveExtraBlksAfterLoad
 0000:020075E0       freeIntermediateSaveExtraBlksAfterLoad2
 0000:02007678       getAddressOfExtraSaveBlk
 0000:02007718       BoxMainSave_GetBlockSize
 0000:02007720       BoxMainSave_Init
 0000:02007788       BoxSaveAccessor_GetMainSave
 0000:02007794       BoxSaveAccessor_InsertPkm
 0000:020077E8       BoxSaveAccessor_InsertPkmCore
 0000:02007870       BoxSaveAccessor_SetPkm
 0000:020078D4       BoxSaveAccessor_SwapPkms
 0000:02007928       BoxSaveAccessor_ClearPkm
 0000:0200795C       BoxSaveAccessor_GetLastOpenedBox
 0000:02007968       BoxSaveAccessor_GetAvailableBoxCount
 0000:02007978       BoxSaveAccessor_UnlockMoreBoxes
 0000:02007994       BoxSaveAccessor_GetNextFreeBoxSlot
 0000:02007A7C       countEmptySlotsInBox
 0000:02007AD4       saveLastOpenedBoxIdx
 0000:02007AE4       getBoxNumFromIdx
 0000:02007B24       loadBoxNameToStrbuf
 0000:02007B64       getBoxNameFromStrbuf
 0000:02007B90       howManyPokesInGeneralAreInBox
 0000:02007BEC       howManyNormalPokesAreInBox
 0000:02007C58       howManyTotalPokesAreInBoxes
 0000:02007C74       howManyNormalPokesAreInAllBoxes
 0000:02007C90       BoxSaveAccessor_GetPkmParam
 0000:02007CF4       BoxSaveAccessor_GetPkm
 0000:02007D4C       copyBoxedPkmToBuf
 0000:02007DC0       getSizeofPokeBox
 0000:02007DC8       BoxSaveAccessor_Create
 0000:02007DE8       BoxSaveAccessor_Free
 0000:02007DF0       initFullBox
 0000:02007E0C       getSizeofBox
 0000:02007E14       BoxSaveAccessor_GetBox
 0000:02007E28       initChatotChatter
 0000:02007E40       allocChatotChatterBlk
 0000:02007E64       getChatterBlockAddress
 0000:02007E70       doesChatotExist
 0000:02007E74       setChatotNotPresent
 0000:02007E7C       setChatotPresent
 0000:02007E84       getChatterVoice
 0000:02007F40       moveChatter
 0000:02007F54       checkChatotInParty
 0000:02007FD0       BagSave_GetBlockSize
 0000:02007FD8       BagSave_Init
 0000:02007FE8       BagSave_CopyPocket
 0000:02008074       BagSave_CopyPocketRaw
 0000:020080AC       BagSave_DefragmentFreeSpace
 0000:020080FC       BagSave_GetPocketPtr
 0000:0200810E       jpt_200810C
 0000:02008152       def_200810C
 0000:02008174       BagSave_GetPocketPtrByItem
 0000:02008194       BagSave_GetItemHandleAddCheckCore
 0000:020081F8       BagSave_GetItemHandleAddCheck
 0000:02008234       maxQuantity
 0000:02008238       BagSave_CheckAvailItemSpace
 0000:0200824C       BagSave_AddItemCore
 0000:02008268       BagSave_AddItem
 0000:0200827C       BagSave_AddItemAsFirst
 0000:020082BC       BagSave_GetItemHandleIfAmountCore
 0000:020082E8       BagSave_GetItemHandleIfAmount
 0000:02008308       BagSave_IsItemFreeSpaceBit
 0000:02008338       BagSave_IsItemInFreeSpace
 0000:02008360       BagSave_MoveBetweenFreeSpace_
 0000:020083C0       BagSave_MoveBetweenFreeSpace
 0000:020083C8       BagSave_GetExistingItemPocket
 0000:020083EC       BagSave_IsItemInDesignatedPocket
 0000:0200842C       BagSave_SubItem
 0000:02008474       BagSave_CheckAmount
 0000:02008488       BagSave_GetUniqueItemCount
 0000:020084AC       BagSave_GetPocketItemCountCore
 0000:020084F8       BagSave_GetPocketItemCount
 0000:0200850C       BagSave_GetFreeSpaceItemCount
 0000:02008538       BagSave_GetItemCountByID
 0000:02008578       BagSave_SwapItems
 0000:0200859C       BagSave_MoveLastToFirst
 0000:020085E0       BagSave_ForceItemAsLast
 0000:02008658       BagSave_ClearEmpty
 0000:02008678       BagSave_Defragment
 0000:020086C0       sortItemBlocks
 0000:02008730       BagSave_GetItemIndexHandle
 0000:02008740       jpt_200873E
 0000:02008774       def_200873E
 0000:02008798       BagSave_GetItemHandle
 0000:020087CC       BagSave_SwitchOwnedDNASplicers
 0000:02008848       PML_ItemGetMaxStorageCount
 0000:020088F0       PML_ItemGetType
 0000:020088FC       BagSave_GetActualItemPocket
 0000:02008914       BagSave_ClearItemEntry
 0000:0200897C       initKeyBlk
 0000:02008984       pTemp
 0000:020089B4       initConfig
 0000:02008A30       getSoundFlags
 0000:02008B74       copyTrainerName
 0000:02008B84       copyTrainerNameFromStrbuf
 0000:02008B94       GetPlayerName
 0000:02008B98       copyName
 0000:02008BA0       textCopy
 0000:02008BB0       copyTrainerNameToNewStrbuf
 0000:02008BCC       setIDAsUInt
 0000:02008BD0       getIDAsUInt
 0000:02008BD4       getTrainerID
 0000:02008BEC       setTrainerGender
 0000:02008BF0       getTrainerGender
 0000:02008C04       TrainerInfo_GetRegion
 0000:02008C0C       UnityTowerVisitor_GetCountry
 0000:02008C10       UnityTowerVisitor_GetProvince
 0000:02008C1C       setupPlaytimeCounters
 0000:02008C74       updateGameTime
 0000:02008DA0       getSizeofTrainerData
 0000:02008DDC       getTrainerDataBlkAddress
 0000:02008EC8       PlayerSave_GetBlockSize
 0000:02008ECC       PlayerSave_Init
 0000:02008EF0       PlayerSave_GetNowSpawnZone
 0000:02008EF4       PlayerSave_GetNextSpawnZone
 0000:02008EF8       PlayerSave_GetEscapeRopeZone
 0000:02008EFC       PlayerSave_GetReturnZoneIDPtr
 0000:02008F00       SaveControl_GetPlayerSave
 0000:02008F0C       SaveControl_SavePlayerState
 0000:02008F64       SaveControl_LoadPlayerState
 0000:02008FD8       PlayerSave_SaveFieldStatus
 0000:02008FE8       PlayerSave_LoadFieldStatus
 0000:02008FF8       PlayerSave_SaveSeason
 0000:02009000       PlayerSave_LoadSeason
 0000:02009008       PlayerSave_SaveWeather
 0000:02009010       PlayerSave_LoadWeather
 0000:02009018       PlayerSave_SaveFollowWk
 0000:02009078       PlayerSave_LoadFollowWk
 0000:020090D0       PlayerSave_SetEggCycleSubsteps
 0000:020090D4       PlayerSave_GetEggCycleSubsteps
 0000:020090DC       PlayerSave_GetHappinesStepCounter
 0000:020090E4       PlayerSave_SetHappinessStepCounter
 0000:020090EC       PlayerSave_SetAbyssalRuinsStepCounter
 0000:020090F4       PlayerSave_GetAbyssalRuinsStepCounter
 0000:020090FC       PlayerSave_GetPlaceNameZoneID
 0000:02009104       PlayerSave_SetPlaceNameZoneID
 0000:0200910C       PlayerSave_IncrementStepCounter
 0000:02009134       PlayerSave_GetStepCounter
 0000:02009148       PlayerSave_BeginStepCounter
 0000:02009160       PlayerSave_EndStepCounter
 0000:0200916C       PlayerSave_HasStepCounter
 0000:0200919C       getTimeSigBlkAddress
 0000:020091A8       nullsub_13
 0000:02009210       saveSecondsTime
 0000:02009220       loadSecondsTime
 0000:02009258       setBadgeGetSecondsTime
 0000:020092C8       getSizeofAdventureDataBlk
 0000:020092CC       initAdventureDataBlk
 0000:020092E4       getSaveAdventureDataBlk
 0000:020092F0       getSaveAdventureTimeBlock
 0000:020092FC       setAdvTimeBlkRtcOffsetOwnerMacBdayMonthDay
 0000:02009328       hasClockNotBeenTampered
 0000:02009344       getOSBirthdayMonth
 0000:02009348       getOSBirthdayDay
 0000:0200934C       buildAdventureTimeBlk
 0000:02009380       hasFullDayMinutesPassed
 0000:02009390       dayCountdownTest
 0000:020093B0       setNewDayForCountdown
 0000:020093D8       initTrainerCardInfoBlk
 0000:02009408       getTrainerCardInfoBlkAddress
 0000:02009414       EncryptRecordStorage
 0000:02009444       DecryptRecordStorage
 0000:02009464       GetRecordCounter
 0000:02009484       SetRecordCounter
 0000:020094A8       GetRecordCounterMax
 0000:0200955C       RecordAdd
 0000:020095A0       RecordAddOne
 0000:020095AC       RecordGet
 0000:0200965C       ResetMailData
 0000:020096B8       CreateMailData
 0000:020096EC       copyMailMsg
 0000:02009B50       getDreamWorldStuffAddress
 0000:02009B70       dataSize
 0000:02009B78       getUnityTower_SurveySaveBlkAddrress
 0000:02009D34       setPlayerSurveys
 0000:02009D44       getPlayerSurveys
 0000:02009D50       UnityTower_GetVisitorParam
 0000:02009D6E       jpt_2009D6C
 0000:02009DAE       def_2009D6C
 0000:02009E58       UnityTower_GetVisitor
 0000:02009E68       nullsub_40
 0000:02009ED8       getSizeofWifiData
 0000:02009EE0       populateWifiList
 0000:02009F0C       copyWifilist
 0000:02009F1C       initWifi
 0000:02009F6C       ovlNum
 0000:02009F7C       nullsub_41
 0000:0200A5E4       getPalPadFriendListAddress
 0000:0200A96C       length
 0000:0200AA1C       mysteryGiftBlock
 0000:0200ABD4       mgEncryptData
 0000:0200AC28       mgDecryptData
 0000:0200AD14       getAddressOfMusicalDataInfo
 0000:0200AD5C       nullsub_42
 0000:0200AF80       getReshZekBlkAddress
 0000:0200B4D0       nullsub_43
 0000:0200B504       getSizeofTourneyBlock
 0000:0200B530       nullsub_44
 0000:0200B534       loadBattleTypeTextToStrbuf
 0000:0200B558       fileId
 0000:0200B55C       makeStrbufLoadBattleTypeText
 0000:0200B8E4       CRC16_350bytes
 0000:0200BA68       clearTournamentBlock
 0000:0200BA78       getTournamentBlockAddress
 0000:0200BA84       GimmickSave_GetBlockSize
 0000:0200BA88       GimmickSave_Init
 0000:0200BA9C       GimmickState_Reset
 0000:0200BAB4       GimmickState_SetID
 0000:0200BAC4       GimmickState_GetUserData
 0000:0200BAD0       GimmickState_GetID
 0000:0200BAD4       GimmickState_StoreSave
 0000:0200BAEC       GimmickState_LoadSave
 0000:0200BB48       freeVSPlayerBlkClearPtr
 0000:0200BB64       getSizeOfVSPlayer
 0000:0200BB6C       clearVSPlayerBlk
 0000:0200BBA4       clearVSPlayer
 0000:0200C070       __decryptData
 0000:0200C0A0       decryptVSPlayer
 0000:0200C0A8       getVSPlayerAllocation
 0000:0200C260       getBattleBox
 0000:0200C26C       copyPkmIntoBattleBox
 0000:0200C28C       convertBoxedPokeSetToParty
 0000:0200C2F0       copySelectedPkmToBattleBlk
 0000:0200C384       getBoxSlotAddress
 0000:0200C3A8       DayCareSave_SetSpawnFlag
 0000:0200C3B8       DayCareSave_ResetSeed
 0000:0200C3CC       DayCareSave_GetPkm
 0000:0200C3EC       DayCareSave_AddPkm
 0000:0200C428       DayCareSave_DisablePkmStatus
 0000:0200C440       DayCareSave_CheckSpawnFlag
 0000:0200C448       DayCareSave_GetPkmStatus
 0000:0200C458       DayCareSave_GetPkmCount
 0000:0200C478       DayCareSave_GetPkmStepCounter
 0000:0200C48C       DayCareSave_GetSeed
 0000:0200C49C       DayCareSave_GenSeed
 0000:0200C51C       DayCareSave_UpdateStepCount
 0000:0200C56C       getSizeofBreedingBlock
 0000:0200C574       setEggArea
 0000:0200C58C       getDaycareBlockAddress
 0000:0200C598       getSizeofProbabilityTable
 0000:0200C5A0       probability
 0000:0200C5C8       setupProbabilityTable
 0000:0200C62C       getHighLinkBlockAddress
 0000:0200C82C       heapId
 0000:0200C830       getTrainerCardData_wrapper
 0000:0200C838       getTrainerGameInfoAddress
 0000:0200C864       SetFavePokemonData
 0000:0200C97C       isBadgeObtained
 0000:0200C990       addBadge
 0000:0200C9A0       getBadgeCount
 0000:0200C9BC       getCash
 0000:0200C9C0       addCashToTotal
 0000:0200C9E4       subCashFromTotal
 0000:0200C9F8       SetGymDefeatPartyData
 0000:0200CA18       GetGymDefeatPartyData
 0000:0200CACC       getSecondsFromTrainerCardData
 0000:0200CAD4       setSecondsCurrentTimeInTrainerCard
 0000:0200CADC       setToTrainerCardDRTable
 0000:0200CAEC       getOneShotDRKeyFromSave
 0000:0200CB44       ShortcutSave_Init
 0000:0200CB50       SaveControl_GetShortcutSave
 0000:0200CB58       SaveControl_GetShortcutSaveCore
 0000:0200CB64       ShortcutSave_SetKeyItemRegistration
 0000:0200CB98       ShortcutSave_IsRegistered
 0000:0200CBB0       ShortcutSave_GetRegistItem
 0000:0200CBB4       ShortcutSave_GetShortcutCount
 0000:0200CBCC       ShortcutSave_MoveItemToIndex
 0000:0200CC5C       ShortcutSave_Condense
 0000:0200CC9C       nullsub_55
 0000:0200CE58       nullsub_56
 0000:0200CE8C       PML_PkmIsBadMonsNo
 0000:0200CEF0       PML_PkmIsNationalDexExclude
 0000:0200CF10       PML_PkmIsRegionalDexExclude
 0000:0200CF30       getIndexPokemonWithForms
 0000:0200CF64       getIndexNumOfPkmForm
 0000:0200D084       getForm
 0000:0200D15C       getSizeofPokedexData
 0000:0200D164       initPokedex
 0000:0200D184       getPokedexSaveAddress
 0000:0200D190       GameData_GetPokedex
 0000:0200D19C       PokeDex_SetNationalObtained
 0000:0200D1AC       PokeDex_IsNationalObtained
 0000:0200D1B4       PokeDex_EnableHabitatList
 0000:0200D1C0       PokeDex_IsHabitatListEnabled
 0000:0200D1C8       givePlayerPokedex
 0000:0200D220       addToDex
 0000:0200D3A8       getNumberOfForms
 0000:0200D568       addPkmToDex
 0000:0200D660       PokeDex_IsCaught
 0000:0200D694       PokeDex_GetCaughtNo
 0000:0200D6B4       PokeDex_GetCaughtNoNational
 0000:0200D6E0       PokeDex_GetCaughtNoUnova
 0000:0200D72C       PokeDex_RegistPkm
 0000:0200D7F4       PokeDex_IsSeen
 0000:0200D83C       countSeenDexPokes
 0000:0200D85C       PokeDex_GetSeenNoNational
 0000:0200D888       PokeDex_GetSeenNoUnova
 0000:0200DA2C       PokeDex_IsCompleteNational
 0000:0200DA44       PokeDex_IsCompleteUnova
 0000:0200DA5C       PokeDex_IsSeenAllUnova
 0000:0200DA74       PokeDex_GetCaughtNoPermissive
 0000:0200DAAC       PokeDex_GetCaughtNoUnovaPermissive
 0000:0200DB04       PokeDex_GetSeenNoUnovaPermissive
 0000:0200DBDC       PokeDex_GetEvaluationParams
 0000:0200DCEC       EncountSave_GetBlockSize
 0000:0200DCF0       SaveControl_GetEncountSave
 0000:0200DCFC       EncountSave_Init
 0000:0200DD1C       EncountSave_RerollSwarmLocation
 0000:0200DD30       EncountSave_GetSwarmLocation
 0000:0200DD40       EncountSave_GetRoamingPkmZoneClock
 0000:0200DD48       EncountSave_GetRoamingPkmStatus
 0000:0200DD54       EncountSave_GetRoamingPkm
 0000:0200DD5C       EncountSave_GetRoamingPkmParam
 0000:0200DD6C       jpt_200DD6A
 0000:0200DDAA       def_200DD6A
 0000:0200DDB0       EncountSave_SetRepelSteps
 0000:0200DDB8       EncountSave_DecrementRepelSteps
 0000:0200DDE0       EncountSave_IsRepelDepleted
 0000:0200DDF4       EncountSave_GetUsedRepelItemID
 0000:0200DDF8       GetAlreadyCaughtNPokeCount
 0000:0200DE18       IsNPokeAlreadyCaught
 0000:0200DE24       SetNPokeCaught
 0000:0200E358       nullsub_98
 0000:0200E8BC       decryptNpcData
 0000:0200E928       getSizeofNpcData
 0000:0200E930       initNpcData
 0000:0200E948       getAreaNPCData
 0000:0200EF84       getCGearDataBlkAddress
 0000:0200F070       SetTradedPokemonData
 0000:0200F128       UnityTowerSave_GetBlockSize
 0000:0200F12C       UnityTowerSave_Init
 0000:0200F138       UnityTowerSave_Store
 0000:0200F150       UnityTowerSave_Load
 0000:0200F180       nullsub_99
 0000:0200F2C4       getRecordBlkAddress
 0000:0200F2D8       nullsub_100
 0000:0200F6E4       getSizeofHollow_RivalData
 0000:0200F6E8       clearHollowRivalData
 0000:0200F6F4       getHollow_RivalData
 0000:0200F7C0       copyRivalNameIntoHollowBlock
 0000:0200F7D4       getPtrToRivalName
 0000:0200F810       getTypeOfFilledSlot
 0000:0200F830       setSlot
 0000:0200F848       setGroup
 0000:0200F860       setHollowStatus
 0000:0200F87C       isHollowFilled
 0000:0200F88C       getSlotNumber
 0000:0200F8A0       getGroupNumber
 0000:0200F8B4       getHollowGender
 0000:0200F8C8       setHollowGender
 0000:0200F8E4       getHollowNum
 0000:0200F8EC       setHollowNum
 0000:0200F8F4       MedalBox_WriteMedal
 0000:0200F8FC       MedalBox_ReadMedal
 0000:0200F904       MedalInfo_SetStatus
 0000:0200F914       MedalInfo_SetDate
 0000:0200F94C       MedalBox_Init
 0000:0200F970       MedalBox_GetBlockSize
 0000:0200F978       MedalBox_GetMedalStatus
 0000:0200F98C       MedalBox_GiveMedal
 0000:0200F9AC       MedalBox_DiscoverMedal
 0000:0200F9C8       MedalBox_AcknowledgeMedal
 0000:0200F9F4       MedalBox_DiscoverInitialMedal
 0000:0200FA18       MedalBox_SetMedalNotSpecial
 0000:0200FA30       MedalBox_IncrementRank
 0000:0200FA4C       MedalBox_GetRank
 0000:0200FA58       MedalBox_IsMedalSpecial
 0000:0200FA68       MedalBox_GetMedalDate
 0000:0200FA90       MedalBox_GetNextRankRequirement
 0000:0200FAA6       jpt_200FAA4
 0000:0200FAC4       def_200FAA4
 0000:0200FAC8       MedalBox_GetObtainedCount
 0000:0200FB40       SaveControl_GetMedalBox
 0000:0200FB54       ActorSave_GetBlockSize
 0000:0200FB5C       ActorSave_Init
 0000:0200FB70       ActorSave_Save
 0000:0200FBB8       ActorSave_Load
 0000:0200FBE4       ActorSave_SaveActor
 0000:0200FC84       ActorSave_LoadActor
 0000:0200FDD8       ActorSave_IterateSaveActor
 0000:0200FE10       ActorSave_IterateLoadActor
 0000:0200FE34       GetIndexOfObjID
 0000:0200FF40       getHollow_RivalBlk
 0000:02010044       SaveControl_GetJoinAvenue
 0000:02010050       nullsub_6
 0000:02010060       getAddressOfBeginningOfOccupants
 0000:0201006C       JoinAvenue_GetInfo
 0000:02010268       getKeyDataBlkAddress
 0000:0201046C       nullsub_97
 0000:020104A4       getKeyInfoSaveBlk
 0000:020104F4       keyEnabler
 0000:02010514       SetGameDifficulty
 0000:02010528       GetGameDifficulty
 0000:020105C8       clearPokewoodBlock
 0000:020105D0       size
 0000:020105D8       getSizeOfPokewoodBlock
 0000:020105E0       allocatePokewoodBlk
 0000:02010600       freeAndClearPokewoodBlk
 0000:02010614       savePokewoodBlk
 0000:0201062C       setPokewoodBlk
 0000:020106AC       loadPokewoodAndCheck
 0000:020106E8       arcId
 0000:020107E4       getPokewoodBlock
 0000:020108CC       zero476Bytes
 0000:020112FC       getDreamRadarSaveSize
 0000:02011300       initDreamRadarSave
 0000:02011314       GetDreamRadarFlag
 0000:02011334       SetDreamRadarFlag
 0000:02011350       GetDreamRadarSaveBlock
 0000:0201135C       getNextSeed
 0000:0201137C       ValidateDreamRadarSave
 0000:0201142C       GetSurveyAnswerMsgID
 0000:0201143C       GetSurveyAnswerMsgIDCount
 0000:020114EC       msgNum
 0000:0201150C       nullsub_101
 0000:02011530       ReadDreamRadarSaveData
 0000:02011590       IsDreamRadarSaveValid
 0000:020116AC       getWifiIconNarcIdxNum
 0000:020116D2       jpt_20116D0
 0000:02011758       def_20116D0
 0000:02011866       jpt_2011864
 0000:0201188A       def_2011864
 0000:02011BFC       GFL_NetHeapInit
 0000:02011C1C       GFL_NetErrInit
 0000:02011CFC       GFL_NetErrShow
 0000:02011D3E       jpt_2011D3C
 0000:02011D80       def_2011D3C
 0000:02012028       GFL_NetErrAbort
 0000:02012038       GFL_NetErrAbortCore
 0000:02012110       AssertFailErrorDisp
 0000:020121B0       GFL_NetErrShowCore
 0000:020122DC       GFL_NetErrDispInit
 0000:02012460       GFL_NetErrRestore
 0000:020125F8       GFL_NetErrIsReady
 0000:0201260C       loadErrorBackground
 0000:02012714       jpt_2012712
 0000:02012738       def_2012712
 0000:02012778       GFL_NetErrDispMessage
 0000:020128E4       value
 0000:020128EC       charCount
 0000:020128F0       colorIndices
 0000:020128F4       GFL_NetErrGameUpdate
 0000:02012DEC       setupDownloadPlayConfig
 0000:02012E28       downloadPlayConfigForWifi
 0000:02012EDC       nullsub_102
 0000:02013136       jpt_2013134
 0000:020131D4       def_2013134
 0000:020131F0       freeMemResetSystem
 0000:0201340C       PassPower_Init
 0000:02013424       PassPower_Update
 0000:0201344C       PassPower_DeactivateAllEffects
 0000:0201346C       PassPower_IsIDInvalid
 0000:02013488       PassPower_IsIDValid
 0000:0201349C       PassPower_IsBW1Compatible
 0000:020134B8       PassPower_GetSPowerBaseID
 0000:020134CC       PassPower_Activate
 0000:02013560       PassPower_GetUsedIDByPassPower
 0000:02013574       PassPower_GetUsedIDByEffect
 0000:02013580       PassPower_GetRemainingSeconds
 0000:020135AC       PassPower_GetDepletedID
 0000:020135D4       PassPower_Deactivate
 0000:020135E4       PassPower_DeactivateEffect
 0000:0201361C       PassPowerData_Create
 0000:0201362C       PassPowerData_Free
 0000:02013634       PassPowerData_GetEffect
 0000:02013640       PassPowerData_GetPrice
 0000:02013650       PassPower_ApplyEncounter
 0000:0201368C       PassPower_ApplyHatch
 0000:020136A8       PassPower_ApplyBefriend
 0000:020136C0       PassPower_ApplyBargain
 0000:020136DC       PassPower_ApplyHPRestore
 0000:02013758       PassPower_ApplyPPRestore
 0000:020137F0       PassPower_ApplyEXP
 0000:0201381C       PassPower_ApplyPrizeMoney
 0000:02013838       PassPower_ApplyCapture
 0000:0201385C       PassPower_ApplyExploring
 0000:02013878       PassPower_ApplyExploringChance
 0000:020138A0       PassPower_ApplyGrotto
 0000:020138C8       PassPower_ApplyGrottoVolume
 0000:020138E0       PassPower_ApplyLuckyEncProb
 0000:020138F8       PassPower_ApplyLuckyShiny
 0000:02014136       jpt_2014134
 0000:02014190       def_2014134
 0000:02014498       CreateLinkFestival
 0000:02014580       getStatusOfFesMission
 0000:0201458C       GetFestMissionCfg
 0000:0201471C       FetchFestMissionCfgGimmickID
 0000:020147C4       LinkFestival_GetNormalChangeBGMID
 0000:02014AE4       SetFesGimmickResidentEnable
 0000:02014B58       ClearLinkFestivalData
 0000:02014D1C       allocateForFestMission
 0000:02014D40       ClearFesMissionCfg
 0000:02014DBC       UpdateFesMissionConfigSecondsTime
 0000:02014E64       isFesMissionAvailable
 0000:02014E90       jpt_2014E8E
 0000:02014EDC       def_2014E8E
 0000:02015878       getGameVersion
 0000:0201587C       VM_Reset
 0000:020158AC       VM_Create
 0000:020158F8       VM_Free
 0000:02015900       VM_ChangeEnv
 0000:02015910       VM_LoadScript
 0000:02015924       VM_Halt
 0000:0201592C       VM_Run
 0000:020159DC       VM_GetEnv
 0000:020159E0       VM_SetCallbackVerifier
 0000:020159E8       VM_Read16
 0000:02015A04       VM_Read32
 0000:02015A34       VM_StackPush
 0000:02015A50       VM_StackPop
 0000:02015A68       VM_Jump
 0000:02015A6C       VM_Call
 0000:02015A7C       VM_Return
 0000:02015A88       VM_SetNativeCallback
 0000:02015A90       GetRealTimeDayPeriod
 0000:02015AA8       GetDayPeriod
 0000:02015AB8       GetLightChangeHoursForSeasons
 0000:02015AC8       IsDayPeriodNight
 0000:02015AE0       GFL_G3DCurveCreateToLoadBufferEntire
 0000:02015B34       GFL_G3DCurveCreateToLoadBuffer
 0000:02015B88       GFL_G3DCurveLoadFileAll
 0000:02015BC8       GFL_G3DCurveLoadFileStream
 0000:02015C10       GFL_G3DCurveFree
 0000:02015C48       GFL_G3DCurveFrameStepLoop
 0000:02015C78       GFL_G3DCurveFrameStep
 0000:02015CAC       GFL_G3DCurveFrameSet
 0000:02015CC8       GFL_G3DCurveGetFrameCount
 0000:02015CCC       GFL_G3DCurveGetNowFrame
 0000:02015CD0       GFL_G3DCurveGetNowTranslation
 0000:02015CF8       GFL_G3DCurveGetNowRotation
 0000:02015D20       GFL_G3DCurveGetNowTranslationLoop
 0000:02015D58       GFL_G3DCurveGetNowRotationLoop
 0000:02015D98       GFL_G3DCurveGetNowScaleLoop
 0000:02015DD8       GFL_G3DCurveReset
 0000:02015DF8       GFL_G3DCurveLoadHeader
 0000:02015E88       GFL_G3DCurveAllocPreload
 0000:02015EF4       GFL_G3DCurveSetLoadBuffer
 0000:02015F58       GFL_G3DCurvePreloadFrames
 0000:020162A4       GFL_G3DCurveApplyCamera
 0000:02016408       GFL_G3DCurveApplyCameraPosTranslation
 0000:02016424       GFL_G3DCurveApplyCameraTgtTranslation
 0000:0201666C       get_mt
 0000:020166D0       nullsub_96
 0000:020166D4       GameSystem_Init
 0000:02016870       denom
 0000:02016874       GameSystem_MainLoop
 0000:02016888       GameSystem_End
 0000:020168B4       GameSystem_CreateProcData
 0000:020168F0       GSYS_Create
 0000:02016960       GSYS_Free
 0000:0201698C       SetupGameSystem
 0000:020169A8       GSYS_Update
 0000:02016A6C       GSYS_Terminate
 0000:02016A80       GSYS_SetEventProvider
 0000:02016A88       GSYS_UpdateEventRunningFlag
 0000:02016A98       GSYS_QueueProc
 0000:02016AA4       GSYS_StartFieldmapProc
 0000:02016ABC       GSYS_GetEventRunningFlag
 0000:02016AD4       GSYS_GetProcMgrState
 0000:02016AD8       GSYS_GetGameData
 0000:02016ADC       GSYS_GetPlayerState
 0000:02016AE8       GSYS_GetNowEvent
 0000:02016AEC       GSYS_SetNowEvent
 0000:02016AF0       GSYS_GetField
 0000:02016AF4       GSYS_SetField
 0000:02016AF8       GSYS_CheckField
 0000:02016B08       GSYS_GetLinkFestival
 0000:02016B1C       GameSystem_GetISS
 0000:02016B20       GSYS_GetGameCommSystem
 0000:02016C3C       GSYS_SetupUICallback
 0000:02016CB4       GameEvent_Create
 0000:02016CF8       GameEvent_RunCallback
 0000:02016D08       GameEvent_Free
 0000:02016D20       GameEvent_Transplant
 0000:02016D50       GameEvent_Replace
 0000:02016D68       GameEvent_ChainNext
 0000:02016D74       GSYS_UpdateEvents
 0000:02016DB8       GSYS_CheckNowEvent
 0000:02016DCC       GSYS_FeedEventsFromProvider
 0000:02016E00       EventProcessCall_Callback
 0000:02016E38       GSYS_QueueProcAsEvent
 0000:02016E68       EventCallOverlayDelegateEvent_Callback
 0000:02016EA0       GameEvent_CreateOverlayDelegate
 0000:02016ED8       GameEvent_GetGameSystem
 0000:02016EDC       GameEvent_GetData
 0000:02016EE0       GameEvent_GetStatePtr
 0000:02016EE4       GameEvent_GetReturnEvent
 0000:02016EE8       GameData_Create
 0000:02017144       GameData_Free
 0000:020171F4       GameData_GetPlayerState
 0000:02017240       GameData_GetEventData
 0000:02017248       GetGameDataNowSpawnZone
 0000:02017250       SetGameDataNowSpawnZone
 0000:0201726C       GetOutboundWarpRememberSpawnInfo
 0000:02017274       SetGameDataOutboundWarpRememberInfo
 0000:02017290       GameData_GetNextZone
 0000:02017298       GameData_SetNextZone
 0000:020172B4       GameData_GetEscapeRopeZone
 0000:020172BC       GameData_SetEscapeRopeZone
 0000:020172D8       GameData_GetEntralinkParentSpawnInfo
 0000:020172E0       GameData_SetEntralinkParentSpawnInfo
 0000:020172FC       SetCurrentTeleportOrDeathZone
 0000:02017310       GetReturnLocationIdx
 0000:02017354       GameData_GetBag
 0000:0201735C       GameData_GetParty
 0000:02017364       GameData_GetBoxSaveAccessor
 0000:0201736C       GetGameDataPlayerInfo
 0000:02017384       GameData_GetBGMInfo
 0000:0201738C       GameData_GetMMSys
 0000:02017394       GameData_GetEventWork
 0000:0201739C       GetMapMatrixSystem
 0000:020173A4       GetCalendar
 0000:020173AC       GameData_GetSeason
 0000:020173B4       GameData_SetSeason
 0000:020173BC       GetNowWeather
 0000:020173C8       SetNowWeather
 0000:020173D4       GameData_GetLastSubscreen
 0000:020173E0       GameData_SetLastSubscreen
 0000:02017438       GameData_Set30FPSMode
 0000:0201744C       GameData_ResetSkipFrame
 0000:02017458       GameData_Is30FPSSkipFrame
 0000:02017480       GameData_Is30FPSMode
 0000:0201748C       getCurrentStepTotal
 0000:02017494       setCurrentStepTotal
 0000:0201749C       GameData_GetFieldSoundSystem
 0000:020174A4       GameData_GetEncountState
 0000:020174AC       GameData_GetLastBtlResult
 0000:020174B4       GameData_SetLastBtlResult
 0000:0201750C       PlayerState_SetWPos
 0000:0201751C       PlayerState_GetWPos
 0000:02017520       PlayerState_SetRailPos
 0000:02017534       PlayerState_GetRailPos
 0000:02017538       PlayerState_SetIsRail
 0000:02017540       PlayerState_SetZoneID
 0000:02017544       PlayerState_GetZoneID
 0000:02017548       PlayerState_SetRotation
 0000:02017550       PlayerState_SetRotationByDir
 0000:02017560       PlayerState_CalcDirection
 0000:020175A4       FieldPlayerState_GetExState
 0000:020175A8       SetPlayerSpecialState
 0000:020175AC       FieldPlayerState_SetObjCode
 0000:020175B0       FieldPlayerState_GetObjCode
 0000:020175B4       GameData_GetFieldStatus
 0000:020175E4       GameData_IsForceSeasonSync
 0000:020175F0       GameData_SetForceSeasonSync
 0000:02017644       GameData_SetKeyItemRegistration
 0000:0201765C       GameData_IsShortcutRegistered
 0000:02017678       GameData_LoadBackup
 0000:02017750       GameData_SaveBackup
 0000:020178BC       GameData_CheckEventsPaused
 0000:02017934       GameData_GetSaveControl
 0000:02017938       GameData_GetSaveControl_
 0000:0201793C       GameData_GetGimmickState
 0000:02017974       getTrainerCardDataBlkAddress
 0000:02017994       GameData_GetRecords
 0000:020179A0       GameData_GetUnityTowerSave
 0000:020179A8       getMusicalInfoBlkAddress
 0000:020179B4       GetTrialHouseWkPPtr
 0000:020179BC       getTimeSigSaveBlock
 0000:02017A0C       getChatterDataAddress
 0000:02017A30       GameData_UpdateTime
 0000:02017A48       GetFieldFollowerCfg
 0000:02017A50       GetTradedPokemonBlock
 0000:02017A5C       getConstDataBlock
 0000:02017A68       GetScrPluginNo
 0000:02017A70       SetScrPluginNo
 0000:02017B14       GameData_GetLensFlareEntryIdx
 0000:02017B1C       GameData_SetLensFlareEntryIdx
 0000:02017B24       GameData_IsLensFlareRequested
 0000:02017B2C       GameData_SetLensFlareRequested
 0000:02017BC0       saveMainSaveAreaAddress
 0000:02017C60       BtlSetup_Create
 0000:02017C84       BtlSetup_Free
 0000:02017C94       BtlSetup_Reset
 0000:02017D10       BtlSetup_GetParty
 0000:02017D18       BtlSetup_SetFlag
 0000:02017D28       BtlSetup_CheckFlag
 0000:02017DDC       ResetBtlFieldStatus
 0000:02017E04       TrainerBattleSetup_Create
 0000:02017E54       BtlSetup_LoadTrainer
 0000:02017EC6       jpt_2017EC4
 0000:02017EFE       def_2017EC4
 0000:02017F14       BtlSetup_LoadPlayerParty
 0000:02017F38       BtlSetup_LoadGameData
 0000:0201805C       eventNum
 0000:02018060       BtlSetup_SetWildNormal
 0000:020180D8       BtlSetup_SetWildMulti
 0000:02018170       BtlSetup_LoadTrainerBase
 0000:020181A4       BtlSetup_SetNetImpl
 0000:0201823C       BtlSetup_SetCaptureDemo
 0000:0201828C       BtlSetup_SetTrainer1v1Single
 0000:020182C0       BtlSetup_SetTrainer1v1Double
 0000:020182F4       BtlSetup_SetTrainer3v3
 0000:02018328       BtlSetup_SetTrainerRotation
 0000:0201835C       BtlSetup_SetTrainer1v2
 0000:020183B0       BtlSetup_SetTrainer2v2
 0000:0201840C       BtlSetup_SetNet1v1Single
 0000:0201843C       BtlSetup_SetNet1v1Double
 0000:0201846C       BtlSetup_SetNetMultiVsNet
 0000:0201848C       BtlSetup_SetNetMultiVsAI
 0000:020184E0       BtlSetup_SetNetTriple
 0000:02018510       BtlSetup_SetNetRotation
 0000:020185D0       adjustPkmLvForChallengeKeys
 0000:0201867C       BtlSetup_PostProcessTrialHouse
 0000:020186E0       InitZoneDataSystem
 0000:02018784       ppZONEDATA_SYSTEM
 0000:02018790       FreeZoneDataSystem
 0000:020187C8       SetAllowVersionSpecificZone
 0000:020187DC       SetAllowVersionSpecificArea
 0000:020187EC       GetVersionedMapChangeZoneNum
 0000:02018828       GetVersionedMapChangeZoneNum2
 0000:02018830       ZoneData_GetHeaderCore
 0000:02018878       ZoneData_GetHeader
 0000:02018884       IsZoneIDArrayContainsZoneID
 0000:020188AC       ZoneData_GetAreaID
 0000:020188F0       GetZoneMatrixId
 0000:020188FC       GetZoneMapType
 0000:02018908       ZoneData_GetScriptDatID
 0000:02018914       ZoneData_GetTextDatID
 0000:02018920       LoadZoneFlyPosToVecFx32
 0000:0201893C       LoadZoneFlyPosRailCoords
 0000:02018954       ZoneData_GetObjectProjectionMatrixType
 0000:02018968       GetZoneDefaultCameraIndex
 0000:0201897C       GetZoneMatrixCamBoundIdx
 0000:02018988       DecideZoneHeaderBGMID
 0000:020189C8       GetZoneEnvFlagsWeather
 0000:020189D8       GetZoneFlagsEnableCycling
 0000:020189E8       GetZoneFlagsEnableCycleSurfBGM
 0000:020189F8       GetZoneFlagsEnableFlyFrom
 0000:02018A08       GetZoneFlagsEnableEscapeRope
 0000:02018A18       GetZoneFlagsEnableEntralinkWarp
 0000:02018A28       IsZonesWithRailsArrayHasZoneID
 0000:02018A38       GetZoneHasRailSystem
 0000:02018A54       GetRailIDForZone
 0000:02018A80       GetZoneIsUnionRoom
 0000:02018A98       IsZone150Or151
 0000:02018AB8       IsZoneLEQ76
 0000:02018AD8       GetZoneIsPWTBattleStage
 0000:02018AEC       IsZoneRoyalUnova
 0000:02018B00       IsZoneBlackTowerOrWhiteTreehollow
 0000:02018B24       GetZoneIsHiddenGroto
 0000:02018B64       IsZoneEntralinkHub
 0000:02018B7C       GetZoneIsEntralinkAny
 0000:02018BA4       GetZoneIsEntreeForest
 0000:02018BC0       IsZoneEntralinkEdgeColorTable
 0000:02018BD8       IsZoneFlashbackMemoryPostFX
 0000:02018C18       IsZoneBlackCityOrWhiteForestLobby
 0000:02018C28       IsZoneJoinAvenue
 0000:02018C50       GetZoneIsMusicalTheater
 0000:02018CA0       GetZoneParentZone
 0000:02018CAC       ZoneData_GetPlaceNameID
 0000:02018CCC       GetZoneLocationNameIdx
 0000:02018CF8       GetZoneLocNameDispType
 0000:02018D08       GetZoneEasyChallengeModeLevelAdjust
 0000:02018D18       GetZoneNameIcon
 0000:02018D28       GetIsZoneMatrix0
 0000:02018D3C       GetZoneEncID
 0000:02018D4C       GetZoneEncIDHighest3Bits
 0000:02018D5C       GetZoneEntitiesID
 0000:02018D68       GetZoneBattleBGID
 0000:02018D7C       GetZoneFogIndex
 0000:02018DBC       GetZoneStaticLightDataIndex
 0000:02018DFC       GetZoneFlashFlags
 0000:02018E38       GetCameraIDForZone
 0000:02018E68       GetMapTransitionEffectType
 0000:02018E7C       IsZoneAbyssalRuinsOutside
 0000:02018E8C       IsZoneAbyssalRuinsInside
 0000:02018E9C       IsZoneAbyssalRuinsFlashRock
 0000:02018EA8       IsZoneAbyssalRuinsStrengthRock
 0000:02018EB4       IsZoneNimbasaStadium
 0000:02018EC4       IsMetLocationEntralink
 0000:02018ED4       GetIsZoneRoute14Or15
 0000:02018EEC       GetZoneNPCInfoCacheIdx
 0000:02018F10       AreaData_Create
 0000:02018F3C       AreaData_Free
 0000:02018F44       AreaData_GetPropBundleID
 0000:02018F48       AreaData_GetTexSetID
 0000:02018F4C       AreaData_GetSRTAnmID
 0000:02018F58       AreaData_GetPatAnmID
 0000:02018F64       AreaData_IsExterior
 0000:02018F68       AreaData_GetLightsID
 0000:02018F6C       AreaData_GetEdgeColorTableID
 0000:02018F70       AreaData_GetActorMatColorID
 0000:02018F74       AreaData_HasSeasons
 0000:02018FE8       InitZoneSpawnInfo
 0000:02019000       SetupZoneWarpArrivalGrid
 0000:02019024       SetupZoneWarpArrivalRail
 0000:0201905C       SetupZoneSpawnInfoWarp
 0000:02019074       CreateZoneChangeData
 0000:020190CC       GetZoneSpawnInfoIsRail
 0000:020190D0       GetPlayerZoneStateWPos
 0000:020190E0       SetPlayerZoneStateWPos
 0000:020190F4       LoadZoneSpawnInfoCheckRail
 0000:02019154       LoadAspertiaCitySpawnInfo
 0000:0201915C       zoneId
 0000:02019164       ConvWarpDirToDir
 0000:02019174       jpt_2019172
 0000:0201918E       def_2019172
 0000:02019194       ConvDirToWarpDir
 0000:020191A4       jpt_20191A2
 0000:020191BC       def_20191A2
 0000:020191C0       EventWork_GetBlockSize
 0000:020191C8       EventWork_Init
 0000:020191D8       EventWork_FlagGet
 0000:02019204       EventWork_FlagSet
 0000:0201922C       EventWork_FlagReset
 0000:02019258       EventWork_FlagResetRange
 0000:02019278       EventWork_GetFlagBytePtr
 0000:020192C0       EventWork_GetWkPtr
 0000:020192CC       EventWork_WorkResetRange
 0000:020192E4       EventWork_ResetDailyFlags
 0000:02019300       EventWork_GetHiddenItemRespawnFlag
 0000:02019310       ConvDirToRailDir
 0000:0201931C       FieldStatus_Create
 0000:02019338       FieldStatus_Free
 0000:02019348       FieldStatus_SetNewLoadFlag
 0000:0201934C       FieldStatus_GetNewLoadFlag
 0000:02019350       FieldStatus_SetContinueFlag
 0000:02019354       FieldStatus_CheckContinueFlag
 0000:02019358       FieldStatus_SetFlashUsed
 0000:0201935C       FieldStatus_CheckFlashUsed
 0000:02019360       FieldStatus_SetFlashPerms
 0000:02019364       FieldStatus_GetFlashPerms
 0000:02019368       FieldStatus_ReserveScript
 0000:0201936C       FieldStatus_GetReserveScript
 0000:02019370       FieldStatus_SetBusyFlag
 0000:02019378       FieldStatus_GetBusyFlag
 0000:0201937C       EventFieldClose_Callback
 0000:020193D0       CreateFieldCloseEvent
 0000:02019400       EventFieldCloseKeepSound_Callback
 0000:02019448       EventFieldCloseKeepSound_Create
 0000:02019478       EventFieldOpen_Callback
 0000:020194C0       EventFieldOpen_CreateHeadless
 0000:020194F0       EventFieldOpen_Create
 0000:0201951C       EventFieldSubprocessTransition_Callback
 0000:0201953A       jpt_2019538
 0000:02019586       def_2019538
 0000:0201958C       EventFieldSubprocessCall_Callback
 0000:020195A8       jpt_20195A6
 0000:020195E8       def_20195A6
 0000:020195EC       EventFieldSubprocessTransition_Create
 0000:0201961C       EventFieldSubprocessCall_Create
 0000:0201976C       EventPokeList_Callback
 0000:02019786       jpt_2019784
 0000:020197F0       def_2019784
 0000:02019804       EventPokeList_Create
 0000:0201992C       Normalize060File
 0000:0201A870       l
 0000:0201B2CC       LoadMCSSGraphicsData
 0000:0201B824       callbackFunc
 0000:0201C01C       SetupPokemonLoaderByBoxData
 0000:0201C070       SetupPokemonLoaderFSTool
 0000:0201C11C       GetTrainerSpriteResIDs
 0000:0201C2D8       PML_PersonalInit
 0000:0201C2F0       PML_GetPkmRawSize
 0000:0201C2F4       PokeParty_GetPkmRawSize
 0000:0201C2F8       PokeParty_NewTempPkm
 0000:0201C338       PokeParty_NewPkm
 0000:0201C384       boxPkmRegenToPartyPkm
 0000:0201C430       PokeParty_ClearPkm
 0000:0201C458       PML_PkmInit
 0000:0201C474       PokeParty_CreateTempPkm
 0000:0201C490       PokeParty_CreatePkm
 0000:0201C508       PML_CreateTempPkm
 0000:0201C524       PML_CreatePkm
 0000:0201C7D8       strbuf
 0000:0201C7E0       setChangedPkmSpecies
 0000:0201C808       setNameChangedPkm
 0000:0201C890       PokeParty_ChangeForme
 0000:0201C8C0       PML_PkmChangeForme
 0000:0201C928       PML_PkmChangeRotomForme
 0000:0201CA2C       hatchEgg
 0000:0201CA54       fillDataForHatchedEgg
 0000:0201CAD0       shuffleMovesUpWriteLastSlot
 0000:0201CB58       setAbilityForForm
 0000:0201CBD0       UpdateGenderOnMonsChange
 0000:0201CC38       PokeParty_DecryptPkm
 0000:0201CC78       PokeParty_EncryptPkm
 0000:0201CCC4       PML_PkmDecrypt
 0000:0201CCEC       PML_PkmReEncrypt
 0000:0201CD24       PokeParty_GetParam
 0000:0201CD48       PokeParty_SetParam
 0000:0201CD6C       PML_PkmSetParam
 0000:0201CD90       setPkmBattleData
 0000:0201CDB4       PML_PkmGetParam
 0000:0201CDD8       PokeParty_IsRare
 0000:0201CDE0       PML_PkmIsRare
 0000:0201CE04       PML_UtilPIDIsRare
 0000:0201CE2C       isKyuremTransformed
 0000:0201CE44       isKamiTrioTransformed
 0000:0201CE68       isKeldeoTransformed
 0000:0201CE80       isNewFormTransformed
 0000:0201CEB8       hasPokemonChangedForm
 0000:0201CEE0       PokeParty_GetSex
 0000:0201CEE8       PML_PkmGetSex
 0000:0201CF30       PML_UtilDerivePkmSex
 0000:0201CF70       GetStatusCond
 0000:0201CF7C       getParentAbilSlotNumber
 0000:0201CF84       getPkmAbilSlotNumber
 0000:0201CFF8       PokeParty_SetStatusCond
 0000:0201D004       PokeParty_SetDefaultMoves
 0000:0201D00C       PML_UtilPkmSetDefaultMoves
 0000:0201D0E0       pFil
 0000:0201D0E8       PokeParty_LearnMove
 0000:0201D0F0       PML_PkmLearnMove
 0000:0201D150       PokeParty_SetLastMove
 0000:0201D158       PML_PkmSetLastMove
 0000:0201D1F4       PokeParty_PPRecover
 0000:0201D1FC       PML_PkmPPRecover
 0000:0201D250       PokeParty_SetMove
 0000:0201D258       PML_PkmSetMove
 0000:0201D384       LearnNewMoveAtCurrentLevel
 0000:0201D48C       PokeParty_GetLevel
 0000:0201D494       PML_PkmGetLevel
 0000:0201D4DC       IsTrainerOT
 0000:0201D4E4       PML_UtilCheckForeignOT
 0000:0201D568       CalcLevelByExp
 0000:0201D5A0       getExpForPkm_Wrapper
 0000:0201D5A8       getExpForPkm
 0000:0201D5E0       PML_UtilGetPkmLvExp
 0000:0201D5F4       PokeParty_GetNature
 0000:0201D5FC       PML_PkmGetNature
 0000:0201D60C       PokeParty_SetNature
 0000:0201D620       PokeParty_RecalcStats
 0000:0201D64C       nullsub_14
 0000:0201D650       nullsub_28
 0000:0201D654       getGenderValue
 0000:0201D688       makeSpecialPID
 0000:0201D724       PML_GenPID
 0000:0201D7EC       getHiddenPowerType
 0000:0201D87C       getHiddenPowerBasePwr
 0000:0201D908       canPkmLearnTM_Wrapper
 0000:0201D910       canPkmLearnTM
 0000:0201D93C       isTMValidForPkm
 0000:0201D978       PokeParty_CheckMoveTutorNormal
 0000:0201D9A4       PML_UtilCheckMoveTutorNormal
 0000:0201D9D8       PokeParty_CheckMoveTutorPaid
 0000:0201DA08       PML_UtilCheckMoveTutorPaid
 0000:0201DA3C       PokeParty_CheckAnyRibbon
 0000:0201DA90       doesNatureAffectStat
 0000:0201DA98       isStatAdjustedByPokeNature
 0000:0201DAB0       isStatAdjustedForNature
 0000:0201DAC0       PokeParty_SetHiddenAbil
 0000:0201DAC8       PML_PkmSetHiddenAbil
 0000:0201DB3C       PokeParty_RecalcStatsCore
 0000:0201DDD0       PokeParty_PkmDecryptCheck
 0000:0201DDF4       PML_PkmDecryptCheck
 0000:0201DE2C       PokeParty_PkmEncrypt
 0000:0201DE4C       PML_PkmEncryptForce
 0000:0201DE74       PokeParty_GetParamCore
 0000:0201DE8A       jpt_201DE88
 0000:0201DEF4       PML_PkmGetParamCore
 0000:0201DF46       jpt_201DF44
 0000:0201E3D0       msgID
 0000:0201E3D8       PokeParty_SetParamCore
 0000:0201E3F0       jpt_201E3EE
 0000:0201E450       def_201E3EE
 0000:0201E458       PML_PkmSetParamCore
 0000:0201E4A4       jpt_201E4A2
 0000:0201EB28       def_201E4A2
 0000:0201EB3C       writePkmBattleData
 0000:0201EB52       jpt_201EB50
 0000:0201EB9E       def_201EB50
 0000:0201EBFE       jpt_201EBFC
 0000:0201ECF2       def_201EBFC
 0000:0201ED08       PML_CryptoRun
 0000:0201ED34       PML_CryptoNextKey
 0000:0201ED54       PML_CryptoGenKey
 0000:0201ED74       PML_PkmIsNicknamed
 0000:0201EDBC       adjustStatForNature
 0000:0201EDFC       statAffectedByNature
 0000:0201EE10       setNicknameToNick
 0000:0201EE1C       setNameToNick
 0000:0201EE4C       PML_GrowTblRead
 0000:0201EE5C       PML_GrowTblGetLvExp
 0000:0201EE74       PML_ItemGetArceusPlateType
 0000:0201EE88       jpt_201EE86
 0000:0201EEE8       def_201EE86
 0000:0201EEF0       PML_PkmGetParamBlockCore
 0000:0201EF0C       PML_PersonalLoadBW2
 0000:0201EF30       pBuf
 0000:0201EF34       GetPersonalAbilCount
 0000:0201EF48       PML_PersonalGetParamSingle
 0000:0201EF58       setLevel
 0000:0201EF98       copyPartyPkm
 0000:0201EFB0       _getTypeForPlate
 0000:0201EFCA       jpt_201EFC8
 0000:0201EFE2       def_201EFC8
 0000:0201EFE8       PML_PkmSanitizeForme
 0000:0201F070       PML_PersonalLoadBW1
 0000:0201F098       PML_PersonalGetParamSingleBW1
 0000:0201F0A8       PML_PkmIsLegendNational
 0000:0201FD24       PokeParty_GetSaveDataSize
 0000:0201FD2C       PokeParty_Create
 0000:0201FD4C       blockLength
 0000:0201FD54       PokeParty_Init
 0000:0201FD60       PokeParty_InitCore
 0000:0201FD98       PokeParty_AddPkm
 0000:0201FDD4       PokeParty_RemovePkm
 0000:0201FE20       PokeParty_GetCapacity
 0000:0201FE24       PokeParty_GetPkmCount
 0000:0201FE28       howManyPartyPokesAreNotEggs
 0000:0201FE5C       howManyPokesAreAbleToFight
 0000:0201FE94       countAllEggsInParty
 0000:0201FEE0       countSanityEggsInParty
 0000:0201FF14       PokeParty_GetFirstBattleReady
 0000:0201FF24       isEggInParty
 0000:0201FF34       PokeParty_GetPkm
 0000:0201FF40       copyPkmIntoPartyBlk
 0000:0201FF84       PokeParty_SwapPkms
 0000:020200D8       PokeParty_Copy
 0000:020200F0       CheckSpeciesInParty
 0000:0202012C       countActivePkms
 0000:02020170       PokeParty_GetSlotExists
 0000:02020188       PokeParty_SetSlotExists
 0000:020201B8       SaveControl_GetPokePartySave
 0000:020201C4       PML_PkmIsBattleReady
 0000:020201EC       PML_PkmIsEgg
 0000:02020204       PokeParty_FindMemberCore
 0000:02020234       PML_PersonalArcInit
 0000:02020260       PML_PersonalFetchBW2
 0000:0202028C       PML_LearnsetLvUpLoad
 0000:020202A0       PML_PersonalLoad
 0000:020202D0       PML_PersonalFree
 0000:020202D8       PML_PersonalGetParam
 0000:020202EA       jpt_20202E8
 0000:0202043A       def_20202E8
 0000:02020440       isGenderlessOrSetGender
 0000:02020454       PML_PersonalLoadRegionalDexTable
 0000:020204A4       datId
 0000:020204AC       PML_PersonalGetDatID
 0000:02020510       PML_PersonalFetchBW1
 0000:0202053C       pokerusHandler
 0000:02020604       pokerusDecay
 0000:02020674       pokerusSpread
 0000:02020724       pokerusBitmaskForPartyPKM
 0000:02020760       pokerusDuration
 0000:0202076C       doesPokerusHaveDuration
 0000:02020784       pokeHasPkrs
 0000:02020790       doesPokeHavePokerus
 0000:020207B4       CheckEvolveSpecies
 0000:02020884       jpt_2020882
 0000:020208D8       jpt_20208D6
 0000:02020978       def_20208D6
 0000:02020C04       def_2020882
 0000:02020C10       loadEvolutionFile
 0000:02020C1C       HaveEvolutionRoot
 0000:02020C68       getEvolutionInfoFile
 0000:02020C78       CheckPokeMoveLearned
 0000:02020CA4       FriendshipManagerCalc
 0000:02020CF0       happinessAdd
 0000:02020D18       pHappiness_add
 0000:02020D1C       IncreaseHappinessForSpecialTrainerBattle
 0000:02020D54       happinessIncrement
 0000:02020E24       PokeParty_CheckPPNeedsReplenish
 0000:02020E74       PokeParty_AddPP
 0000:02020EF4       PokeParty_Recover
 0000:02020F38       PokeParty_RecoverAll
 0000:02020FC0       GetPokemonSpriteFileID
 0000:020211BC       getOBJTileMapping_MainEng
 0000:020211F4       getOBJTileMapping_SubEng
 0000:020212AC       PML_MoveGetParam
 0000:02021334       p_file
 0000:02021338       PML_MoveGetParamCore
 0000:02021348       jpt_2021346
 0000:02021438       def_2021346
 0000:0202143C       getMoveFlag
 0000:020215A4       PML_MoveGetStatChangeStat
 0000:02021640       PML_MoveGetStatChangeStage
 0000:020216DC       PML_MoveGetMaxPP
 0000:02021708       GetMoveWeather
 0000:02021740       PML_MoveGetQuality
 0000:0202174C       PML_MoveGetType
 0000:0202175C       PML_MoveGetBasePower
 0000:0202176C       PML_MoveGetCategory
 0000:02021778       PML_MoveIsAlwaysHit
 0000:02021808       PML_MoveIsAlwaysCrit
 0000:02021898       PML_MoveIsDamaging
 0000:020218AC       PML_MoveInitDataCache
 0000:02021944       PML_MoveFreeDataCache
 0000:0202198C       PML_MoveIsDataCachePresent
 0000:020219A0       GFL_TextRndInit
 0000:020219BC       terminator
 0000:02021A44       GFL_TextRndFree
 0000:02021CA8       GFL_TextRendererTextPrint
 0000:02021D28       GFL_TextRendererDrawToBitmap
 0000:02021D54       GFL_TextRendererDrawToBitmapEx
 0000:02021D8C       GFL_TextRndBind
 0000:02021E28       GFL_TextRndSetDefaultColor
 0000:02021E70       GFL_TextRndDrawStrBuf
 0000:02021F28       GFL_TextRndDrawString
 0000:02021FE0       GFL_TextRndDrawCharProc_IDX4
 0000:0202202C       GFL_TextRndDrawCharProc_IDX8
 0000:0202207C       GFL_TextRndExecLayoutCmd
 0000:020220AC       jpt_20220AA
 0000:020221CA       def_20220AA
 0000:020221E4       GFL_TextRndExecColorCmd
 0000:020226BC       transparentIndex
 0000:0202281C       GFL_FontGetLineWidth
 0000:020228B4       GFL_FontGetBlockWidth
 0000:020229D8       wchar
 0000:020229DC       GFL_FontGetBlockHeight
 0000:02022A28       GFL_StrCmdGetWordSetCommandCount
 0000:02022A6C       GFL_StrCmdCountLinesUntilWordSetIndex
 0000:02022ADC       GFL_StrCmdGetStrWidthUntilWordSetIndex
 0000:02022B5C       GFL_StrCmdGetIdentChar
 0000:02022B64       GFL_StrCmdIsWordSet
 0000:02022B8C       GFL_StrCmdGetCommandCategory
 0000:02022BA4       GFL_StrCmdBuild
 0000:02022BF0       GFL_StrCmdGetCommandIndex
 0000:02022C08       GFL_WordSetGetCommandParameter
 0000:02022C20       GFL_StrCmdSkipCommand
 0000:02022D84       GFL_FontCreate
 0000:02022DD4       GFL_FontFree
 0000:02022DEC       GFL_FontLoad
 0000:02022F9C       GFL_FontInit
 0000:02022FC0       GFL_FontInitCached
 0000:02023040       GFL_FontInitStreamed
 0000:0202309C       nullsub_57
 0000:020230A0       GFL_FontGetGlyph
 0000:020230BC       GFL_FontGetCharIndex
 0000:02023158       GFL_FontGetGlyphCached
 0000:02023190       GFL_FontGetGlyphStreamed
 0000:020231E0       GFL_FontGlyphCopy
 0000:02023208       GFL_FontGetCharWidth
 0000:0202321C       GFL_FontGetCharHeight
 0000:02023224       GFL_FontGetCharWidthDynamic
 0000:020232F4       GFL_FontGetCharWidthFixed
 0000:02023314       GFL_TextRndUpdateColorIndexLUT
 0000:0202339C       GFL_TextRndGetGlobalColors
 0000:020233B4       GFL_TextRndCheckColorIndexChange
 0000:020233DC       GFL_FontBitmapCopy_8x8
 0000:02023A70       GFL_BitReaderRead
 0000:02023AD4       GFL_FontBitmapCopy_8x16
 0000:02023CD4       GFL_FontBitmapCopy_16x8
 0000:02023EC4       GFL_FontBitmapCopy_16x16
 0000:02024200       GFL_WordSetSystemCreateDefault
 0000:02024210       GFL_WordSetSystemCreate
 0000:020242A0       GFL_WordSetSystemFree
 0000:020242EC       GFL_WordSetClearBufFlags
 0000:02024300       GFL_WordSetClearBuf
 0000:02024320       GFL_WordSetCopyStrbuf
 0000:0202436C       GFL_WordSetLoadMsg
 0000:020243FC       WordSet_LoadSpeciesName
 0000:02024420       setPartyPokemonSpeciesNameToStrbuf
 0000:02024440       setBoxPokemonSpeciesNameToStrbuf
 0000:02024460       loadPokemonTextNameToStrbuf
 0000:0202446C       fileNo
 0000:02024470       loadPokemonSpeciesTextNameToStrbuf
 0000:02024490       loadPokemonNicknameToStrbuf
 0000:020244B0       loadBoxPokemonNameToStrbuf
 0000:020244D0       loadMoveNameToStrbuf
 0000:020244E0       loadItemNameToStrbuf
 0000:020244EC       loadItemTextNameToStrbuf
 0000:020244FC       loadItemsNameToStrbuf
 0000:0202450C       loadItemText
 0000:0202452C       loadAbilityNameToStrbuf
 0000:0202453C       loadNatureToStrbuf
 0000:02024548       WordSetNumber
 0000:0202456C       loadSayingForDisplay
 0000:020245C4       loadTypeTextToStrbuf
 0000:020245D4       copyVarForText
 0000:020245F0       GFL_WordSetLoadStr
 0000:0202460C       loadCountryToStrbuf
 0000:0202465C       loadCountryAreaToStrbuf
 0000:020246C0       loadTrainerTypeText
 0000:020246D0       loadTrainerTypeToStrbuf
 0000:020246F0       loadTrainerTypeWithArticleToStrbuf
 0000:02024700       loadTrainerNamesToStrbuf
 0000:02024710       loadStatNameToStrbuf
 0000:02024720       loadBagPocketNameToStrbuf
 0000:0202472C       loadLocationNameToStrbuf
 0000:02024738       loadBoxNameForDisplay
 0000:02024758       loadPassPowerToStrbuf
 0000:02024780       loadHobbyNameToStrbuf
 0000:02024798       loadQuestionnaireAnswerToStrbuf
 0000:020247B0       loadJobAnswerToStrbuf
 0000:020247C8       loadBattleInstituteMsgForDisplay
 0000:02024818       loadMedalNameToStrbuf
 0000:02024824       loadMedalRankToStrbuf
 0000:02024840       loadFromEmptyFile
 0000:0202484C       loadPokewoodLineToStrbuf
 0000:0202492C       loadMonthToStrbuf
 0000:0202494C       GFL_WordSetFormatStrbuf
 0000:02024A00       GFL_WordSetClearAll
 0000:02024A28       PML_SpeciesNamesResidentInit
 0000:02024A40       GFL_WordSetFormatNumber
 0000:02024B00       wcharsncpy
 0000:02024B2C       wcharscmp
 0000:02024B60       GFL_StrCharToUpperCase
 0000:02024B70       GFL_StrCharRemoveAccents
 0000:02024B94       GFL_StrBufCmpIgnoreAccents
 0000:02024BEC       GFL_StrBufIsCompressed
 0000:02024C10       GFL_StrBufUncompress
 0000:02024CAC       GetSysMsgBoxCharDatID
 0000:02024CB8       GetSysMsgBoxPaletteDatID
 0000:02024CC4       LoadSysMsgBoxBGChar
 0000:02024CEC       LoadSysMsgBoxPalette
 0000:02024D2C       LoadSysMsgBox
 0000:02024D4C       LoadCursorImageEndOfHeap
 0000:02024D98       BmpWin_DrawFrameCore
 0000:02024EAC       BmpWin_DrawFrame
 0000:02024F8C       ListMenuCore_CreateOptionList
 0000:02024FD8       ListMenuCore_FreeOptionList
 0000:02024FE8       ListMenuCore_AppendMsgOption
 0000:02025008       ListMenuCore_AppendStrBufOption
 0000:02025028       ListMenuCore_GetNextOptionPtr
 0000:02025064       ListMenuCore_FreeStrBufs
 0000:0202508C       ListMenuCore_GetFirstFreeIndex
 0000:02025170       shopDecision
 0000:02025230       sndId
 0000:0202550C       ShopUI_CreateConfirmDialog
 0000:0202571C       BmpMenuList_Create
 0000:020258D0       BmpMenuList_Update
 0000:02025A3C       BmpMenuList_Free
 0000:02025F36       jpt_2025F34
 0000:02025F50       def_2025F34
 0000:02025F72       jpt_2025F70
 0000:02025FB4       def_2025F70
 0000:02025FB8       BmpMenuList_Scroll
 0000:020261B0       BmpMenuList_CycleCursor
 0000:02026222       jpt_2026220
 0000:0202622A       def_2026220
 0000:02026554       BmpCursor_Create
 0000:02026628       GFL_ArcSysInitRawHandle
 0000:02026644       GFL_ArcSysReadRawResource
 0000:0202669C       GetItemGraphicsDatID
 0000:020266B6       jpt_20266B4
 0000:0202671A       def_20266B4
 0000:0202674C       PML_ItemArcHandleCreate
 0000:02026758       PML_ItemArcHandleReadFile
 0000:0202676C       PML_ItemReadDataFile
 0000:020267BC       setItemNameToStrbuf
 0000:020267EC       setItemDescriptionTextToStrbuf
 0000:0202681C       GetItemParam
 0000:0202684C       PML_ItemGetParam
 0000:0202685E       jpt_202685C
 0000:020268E2       def_202685C
 0000:02026900       PML_ItemGetBattleStat
 0000:02026914       jpt_2026912
 0000:02026ABC       def_2026912
 0000:02026AC0       PML_ItemIsTMHM
 0000:02026AE8       PML_ItemIsTM
 0000:02026B10       PML_ItemGetTMWazaID
 0000:02026B44       PML_MoveIsHM
 0000:02026B6C       PML_ItemGetTMBitMask
 0000:02026BB0       PML_ItemGetHMID
 0000:02026BCC       PML_ItemIsMail
 0000:02026BEC       PML_ItemGetMailID
 0000:02026C0C       PML_ItemGetMailItemID
 0000:02026C20       PML_ItemIsBerry
 0000:02026C40       PML_ItemIsNotSpecialMonsball
 0000:02026C58       PML_ItemMonsBallConvID
 0000:02026C8C       PML_ItemGetMonsBallID
 0000:02026D0C       GameSystemTimer_Disable
 0000:02026D18       GameSystemTimer_Start
 0000:02026D38       GameSystemTimer_Update
 0000:02026E90       PaletteWorkSet
 0000:02026F34       PaletteWorkSetEx_Arc
 0000:02026F88       PaletteWorkSet_Arc
 0000:02026FA8       PaletteWorkSet_VramCopy
 0000:02026FBE       jpt_2026FBC
 0000:02026FEC       def_2026FBC
 0000:02026FFC       PaletteWorkDefaultWorkGet
 0000:02027004       PaletteWorkTransWorkGet
 0000:02027010       PaletteFadeReq
 0000:0202711C       PaletteFadeReqWrite
 0000:02027204       ReqBitCheck
 0000:02027218       TransBitSet
 0000:02027258       FadeBitCheck
 0000:02027298       FadeReqSet
 0000:02027358       PaletteFadeTask
 0000:02027400       NormalPaletteFade
 0000:02027420       ExtraPaletteFade
 0000:0202749C       PaletteFadeMain
 0000:020274F4       FadeWorkSet
 0000:0202757C       FadeParamCheck
 0000:02027624       PaletteFadeTrans
 0000:0202768E       jpt_202768C
 0000:0202776C       def_202768C
 0000:020277AC       PaletteFadeCheck
 0000:020277B8       PaletteTrans_AutoSet
 0000:020277DC       PaletteTransSwitch
 0000:02027914       ColorFilter_ApplyLUT
 0000:02027960       ColorFilter_ApplyVintage
 0000:020279E0       GFL_WipeSet
 0000:02027AA4       a9
 0000:02027AF8       GFL_WipeIsFinished
 0000:02027B84       killBrightnessEitherEngine
 0000:02027C20       setBrightnessForEngine
 0000:02027D26       jpt_2027D24
 0000:02027D74       def_2027D24
 0000:02027F40       nullsub_58
 0000:020293FC       nullsub_59
 0000:0202A188       loadSayingToString
 0000:0202A2D8       getDexBlkAddress
 0000:0202A370       InfoWin_Create
 0000:0202A40C       InfoWin_Update
 0000:0202A71C       InfoWin_Free
 0000:0202B48C       getSubdividedCountryArrayNum
 0000:0202B4B4       CountryHasProvinces
 0000:0202B4E4       fetchFileNumOfDividedCountry
 0000:0202B4F0       getFileNumForSubdividedRegion
 0000:0202BBFC       FreeGameComm
 0000:0202BE00       GameCommSys_BootCheck
 0000:0202BE24       getBasePlayerBlk
 0000:0202D7D4       nullsub_80
 0000:0202D808       nullsub_81
 0000:0202D80C       getUINarcIdx
 0000:0202D8DC       GetUIStatusIconsPaletteIndex
 0000:0202D8E0       GetUIStatusIconsNCGRIndex
 0000:0202EA00       PlayerActionPerms_SetActionBlocked
 0000:0202EA08       PlayerActionPerms_IsActionBlocked
 0000:0202EA10       PlayerVolumeFader_Create
 0000:0202EA34       PlayerVolumeFader_Free
 0000:0202EA3C       PlayerVolumeFader_Update
 0000:0202EA44       PlayerVolumeFader_SetFade
 0000:0202EA64       PlayerVolumeFader_Init
 0000:0202EA7C       PlayerVolumeFader_SetTargetVolume
 0000:0202EA94       PlayerVolumeFader_SetVolume
 0000:0202EAA8       PlayerVolumeFader_StepFrame
 0000:0202EABC       PlayerVolumeFader_CalcVolume
 0000:0202EAD8       PlayerVolumeFader_Commit
 0000:0202EAF4       FieldSnd_Create
 0000:0202EB4C       FieldSnd_Free
 0000:0202EB74       FieldSnd_BGMGetStackIndex
 0000:0202EBB0       FieldSnd_GetNowBGM
 0000:0202EC68       FieldSnd_IsBusy
 0000:0202ECA8       FieldSnd_SendRequest
 0000:0202ECC4       FieldSnd_Update
 0000:0202ED00       FieldSnd_Release
 0000:0202ED08       FieldSnd_SetPlayerVolumeFade
 0000:0202ED2C       FieldSnd_PlayAmbience
 0000:0202ED7C       FieldSnd_PlayAmbienceEx
 0000:0202EDC8       FieldSnd_SetAmbienceVolume
 0000:0202EE00       FieldSnd_StopAmbience
 0000:0202EE50       FieldSnd_StopAmbienceAll
 0000:0202EE8C       FieldSnd_ResumeAmbience
 0000:0202EF84       FieldSnd_Reset
 0000:0202EFDC       FieldSnd_ReleaseCore
 0000:0202F004       FieldSnd_UpdateCommand
 0000:0202F02C       FieldSnd_GetQueuedCommand
 0000:0202F068       FieldSnd_HasQueuedCommand
 0000:0202F07C       FieldSnd_GetCommandCountByID
 0000:0202F0BC       FieldSnd_SendRequestCore
 0000:0202F0F8       FieldSnd_IsCommandSuccessionPermitted
 0000:0202F130       FieldSnd_NextCommand
 0000:0202F15C       FieldSnd_SetCommand
 0000:0202F172       jpt_202F170
 0000:0202F1C4       def_202F170
 0000:0202F280       FieldSnd_IsCommandPermitted
 0000:0202F290       FieldSnd_Control_Init
 0000:0202F2A6       jpt_202F2A4
 0000:0202F2EC       def_202F2A4
 0000:0202F2F0       FieldSnd_Control_Playing
 0000:0202F306       jpt_202F304
 0000:0202F39E       def_202F304
 0000:0202F3A0       FieldSnd_Control_Idle
 0000:0202F3D8       FieldSnd_Control_FadeOut
 0000:0202F3DC       FieldSnd_Control_FadeIn
 0000:0202F3E0       FieldSnd_Control_Push
 0000:0202F3E4       FieldSnd_Control_Pop
 0000:0202F3E8       FieldSnd_Control_PopFinish
 0000:0202F3EC       FieldSnd_Control_ChangeOut
 0000:0202F404       FieldSnd_Control_ChangeIn
 0000:0202F41C       FieldSnd_Control_ChangeFinish
 0000:0202F420       FieldSnd_Control_PostponedPush
 0000:0202F424       FieldSnd_Control_PostponedPushFinish
 0000:0202F428       FieldSnd_Control_Prepare
 0000:0202F42C       FieldSnd_Control_PrepareFinish
 0000:0202F430       FieldSnd_Exec_Init
 0000:0202F434       FieldSnd_Exec_Playing
 0000:0202F438       FieldSnd_Exec_Idle
 0000:0202F43C       FieldSnd_Exec_FadeOut
 0000:0202F458       FieldSnd_Exec_FadeIn
 0000:0202F474       FieldSnd_Exec_Push
 0000:0202F498       FieldSnd_Exec_Pop
 0000:0202F4BC       FieldSnd_Exec_PopFinish
 0000:0202F4D8       FieldSnd_Exec_ChangeOut
 0000:0202F500       FieldSnd_Exec_ChangeIn
 0000:0202F538       FieldSnd_Exec_ChangeFinish
 0000:0202F570       FieldSnd_Exec_PostponedPush
 0000:0202F598       FieldSnd_Exec_PostponedPushFinish
 0000:0202F5BC       FieldSnd_Exec_Prepare
 0000:0202F5D4       FieldSnd_Exec_PrepareFinish
 0000:0202F5F4       FieldSnd_SetState
 0000:0202F5F8       FieldSnd_FinishCommandCore
 0000:0202F604       FieldSnd_DiscardCommand
 0000:0202F614       FieldSnd_FinishCommand
 0000:0202F624       FieldSnd_CmdFadeIn
 0000:0202F63C       FieldSnd_CmdFadeOut
 0000:0202F64C       FieldSnd_BGMPush
 0000:0202F688       FieldSnd_BGMPop
 0000:0202F6B8       FieldSnd_BGMChangeOut
 0000:0202F6E4       FieldSnd_BGMChangeIn
 0000:0202F70C       FieldSnd_CmdBGMPlay
 0000:0202F72C       FieldSnd_CheckEventsPaused
 0000:0202F738       EventBGMFadeIn_Callback
 0000:0202F770       EventBGMFadeIn_Create
 0000:0202F7A4       EventBGMFadeOut_Callback
 0000:0202F7DC       EventBGMFadeOut_Create
 0000:0202F810       EventBGMPushWait_Callback
 0000:0202F854       EventBGMPushWait_Create
 0000:0202F888       EventPushBGMFinish_Callback
 0000:0202F8D0       EventPushBGMFinish_Create
 0000:0202F908       EventBGMPop_Callback
 0000:0202F940       EventBGMPop_CreateEx
 0000:0202F978       EventBGMPopAll_Callback
 0000:0202F9DC       EventBGMPopAll_Create
 0000:0202FA10       EventBGMPlayPushEx_Callback
 0000:0202FA5C       EventBGMPlayPushEx_Create
 0000:0202FA9C       EventMEPlay_Callback
 0000:0202FAE0       EventMEPlay_Create
 0000:0202FB18       EventBGMChange_Callback
 0000:0202FB50       EventBGMChange_Create
 0000:0202FB90       EventBGMFadeStop_Callback
 0000:0202FBB2       jpt_202FBB0
 0000:0202FBE2       def_202FBB0
 0000:0202FBE8       EventBGMPlay_Callback
 0000:0202FC34       EventBGMPlay_Create
 0000:0202FC68       EventBGMPlayEx_Callback
 0000:0202FCB4       EventBGMPlayEx_Create
 0000:0202FCEC       ChangeBGMToFieldSilence_Callback
 0000:0202FD20       bgmId
 0000:0202FD24       CreateBGMFadeOutEvent
 0000:0202FD58       EventBGMPlayPush_Callback
 0000:0202FDA4       EventBGMPlayPush_Create
 0000:0202FDD8       EventBGMFadeStop_Create
 0000:0202FE0C       EventBattleBGMPlay_Callback
 0000:0202FE24       jpt_202FE22
 0000:0202FE76       def_202FE22
 0000:0202FE7C       EventBattleBGMPlay_Create
 0000:0202FEB0       EventBGMFadePop_Create
 0000:0202FF44       EventBGMFadeWait_Callback
 0000:0202FF70       EventBGMFadeWait_Create
 0000:0202FFA0       FieldSnd_ChangeZoneBGM
 0000:0202FFF4       FieldSnd_SetZoneBGM
 0000:0203002C       FieldSnd_FadeInImmediate
 0000:0203003C       FieldSnd_SetBGMOnPlayerExStateChange
 0000:020300A4       GetMapBGMIDByPlayerState2
 0000:020300AC       GameData_GetNowBGM
 0000:020300B8       GameData_IsZoneBGMOverriden
 0000:020300D0       GetPlayerLandSurfCycleState
 0000:020300DC       GetRegularZoneBGMID
 0000:020300EC       GetZoneBGMOverrideID
 0000:02030190       GetMapBGMIDByPlayerState
 0000:0203037E       jpt_203037C
 0000:020303BA       def_203037C
 0000:020303DE       jpt_20303DC
 0000:02030400       def_20303DC
 0000:02030404       LoadTPokeData
 0000:0203044C       FreeTPokeData
 0000:02030464       GetPokemonFieldOBJCODE
 0000:02030478       IsFieldPokemonSpriteHugeBillboard
 0000:020304A8       GetFieldPokemonMMdlLUTIndex_
 0000:020304E8       GetFieldPokemonMMdlLUTIndex
 0000:020304F8       GetIndexOfTPokeObjCode
 0000:0203050C       TrainerData_GetParam
 0000:0203052A       jpt_2030528
 0000:02030574       TrainerMsg_CheckExists
 0000:02030604       TrainerMsg_Load
 0000:0203070C       TrainerData_ReadTrainerData
 0000:02030750       TrainerData_ReadParty
 0000:02030760       TrainerClass_GetSex
 0000:0203076C       GetTrSpriteBaseDatID
 0000:020307C0       GetTrainerClassEyeBGMID
 0000:020307CC       GetTrainerClassSpecialId
 0000:020307F0       GetTrainerClassBGMGroupId
 0000:0203080C       GetTrainerClassBattlePedestal
 0000:02030828       CheckOverridenTrainerBattleBG
 0000:02030854       TrainerUtil_LoadTrainer
 0000:020308EC       TrainerUtil_LoadParty
 0000:02030986       jpt_2030984
 0000:02030A78       def_2030984
 0000:02030DCC       TrainerUtil_CalcBasePID
 0000:02030E2C       TrainerUtil_SetupPkm
 0000:02030EE8       TrainerUtil_IsIDBattleInst
 0000:02030EFC       ISSCitySys_Create
 0000:02030F40       ISSCitySys_Update
 0000:02030F54       ISSCitySys_Enable
 0000:02030F5C       ISSCitySys_Disable
 0000:02030F64       ISSCitySys_ChangeZone
 0000:02030F84       ISSCitySys_LoadUnits
 0000:02030F94       ISSCitySys_LoadUnitsCore
 0000:02031000       ISSCitySys_GetState
 0000:02031004       ISSCitySys_SetState
 0000:02031008       ISSCitySys_EnableCore
 0000:02031054       ISSCitySys_DisableCore
 0000:02031068       ISSCitySys_ChangeZoneCore
 0000:020310C4       ISSCitySys_GetNowZoneID
 0000:020310D0       ISSCitySys_IsEnabled
 0000:020310D4       ISSCitySys_UpdateCore
 0000:02031104       ISSCitySys_UpdateState_EmitterOnly
 0000:02031118       ISSCitySys_UpdateState_EmitterMasterUp
 0000:0203114C       ISSCitySys_UpdateState_EmitterMasterDown
 0000:02031180       ISSCitySys_GetNowUnit
 0000:02031190       ISSCitySys_GetNowUnitIndex
 0000:02031194       ISSCitySys_IsUnitBound
 0000:020311A8       ISSCitySys_IsZoneRegist
 0000:020311BC       ISSCitySys_SetUnitByZone
 0000:020311E0       ISSCitySys_FindUnitByZone
 0000:0203120C       ISSCitySys_GetMasterVolume
 0000:02031210       ISSCitySys_RaiseVolume
 0000:0203123C       ISSCitySys_LowerVolume
 0000:02031268       ISSCitySys_SetMasterVolume
 0000:0203126C       ISSCitySys_GetNowEmitterVolume
 0000:02031270       ISSCitySys_UpdateEmitter
 0000:020312A4       ISSCitySys_CalcEmitterVolume
 0000:020312C0       ISSCitySys_SetNowEmitterVolume
 0000:020312C4       ISSCitySys_CommitVolume
 0000:020312D8       ISSCitySys_CalcVolume
 0000:020312F4       ISSCityUnit_Create
 0000:02031338       ISSCityUnit_GetZoneID
 0000:0203133C       ISSCityUnit_CalcEmitterVolume
 0000:02031344       ISSCityUnit_LoadArcData
 0000:0203137C       ISSCityUnit_CalcEmitterVolumeCore
 0000:020313B4       ISSCityUnit_CalcEmitterVolumeX
 0000:02031404       ISSCityUnit_CalcEmitterVolumeY
 0000:02031454       ISSCityUnit_CalcEmitterVolumeZ
 0000:020314AC       ISSCityUnit_GetKeyIndexX
 0000:020314DC       ISSCityUnit_GetKeyIndexY
 0000:0203150C       ISSCityUnit_GetKeyIndexZ
 0000:0203153C       ISSCityUnit_GetOriginX
 0000:0203155C       ISSCityUnit_GetOriginY
 0000:0203157C       ISSCityUnit_GetOriginZ
 0000:0203159C       ISSCityUnit_Lerp
 0000:020315B4       ISSRoadSys_Create
 0000:020315FC       ISSRoadSys_Update
 0000:02031604       ISSRoadSys_Enable
 0000:02031614       ISSRoadSys_EnableCore
 0000:02031638       ISSRoadSys_UpdateCore
 0000:0203165C       ISSRoadSys_SyncPlayerPosIsChange
 0000:02031694       ISSRoadSys_RaiseVolume
 0000:020316AC       ISSRoadSys_LowerVolume
 0000:020316C4       ISSRoadSys_CommitVolume
 0000:020316D4       ISSDungeon_SetSeason
 0000:020316FC       pitch_pan_trackBitMask
 0000:02031704       ISSDungeonSys_LoadArcData
 0000:02031768       ISSDungeonList_Free
 0000:0203177C       ISSDungeonList_FindByZone
 0000:020317A8       ISSDungeonSys_Create
 0000:020317F4       ISSDungeonSys_Free
 0000:0203180C       ISSDungeonSys_Update
 0000:02031828       ISSDungeonSys_ReqChangeZone
 0000:0203182C       ISSDungeonSys_Enable
 0000:02031834       ISSDungeonSys_Disable
 0000:0203183C       ISSDungeonSys_IsEnabled
 0000:02031840       ISSDungeonSys_IsZoneRegist
 0000:0203185C       ISSDungeonSys_Reset
 0000:02031884       ISSDungeonSys_EnableCore
 0000:02031898       ISSDungeonSys_DisableCore
 0000:020318A4       ISSDungeonSys_ChangeZone
 0000:020318C4       ISS_Create
 0000:020318F8       ISS_Free
 0000:02031908       ISS_Update
 0000:0203194C       ISS_ChangeZone
 0000:02031980       ISS_GetSwitchSys
 0000:02031984       ISS_Get3DSoundSys
 0000:02031988       ISS_GetDungeonSys
 0000:0203198C       ISS_Reset
 0000:020319A4       ISS_LoadGameData
 0000:020319DC       ISS_FreeSubsystems
 0000:02031A04       ISS_InitRoadSys
 0000:02031A18       ISS_InitCitySys
 0000:02031A2C       ISS_InitDungeonSys
 0000:02031A44       ISS_InitZoneSys
 0000:02031A54       ISS_InitSwitchSys
 0000:02031A64       ISS_Init3DSoundSys
 0000:02031A74       ISS_FreeRoadSys
 0000:02031A84       ISS_FreeCitySys
 0000:02031A94       ISS_FreeDungeonSys
 0000:02031AA4       ISS_FreeZoneSys
 0000:02031AB4       ISS_FreeSwitchSys
 0000:02031AC4       ISS_Free3DSoundSys
 0000:02031AD4       ISS_UpdateRoadSys
 0000:02031AE4       ISS_UpdateCitySys
 0000:02031AF4       ISS_UpdateDungeonSys
 0000:02031B00       ISS_UpdateZoneSys
 0000:02031B0C       ISS_UpdateSwitchSys
 0000:02031B18       ISS_Update3DSoundSys
 0000:02031B28       ISS_EnableRoadSys
 0000:02031B34       ISS_EnableCitySys
 0000:02031B40       ISS_EnableDungeonSys
 0000:02031B4C       ISS_EnableZoneSys
 0000:02031B60       ISS_EnableSwitchSys
 0000:02031B6C       ISS_Enable3DSoundSys
 0000:02031B78       ISS_DisableRoadSys
 0000:02031B84       ISS_DisableCitySys
 0000:02031B90       ISS_DisableDungeonSys
 0000:02031B9C       ISS_DisableZoneSys
 0000:02031BA8       ISS_DisableSwitchSys
 0000:02031BB4       ISS_Disable3DSoundSys
 0000:02031BC0       nullsub_18
 0000:02031BC4       ISS_ChangeCitySysZone
 0000:02031BD0       ISS_ChangeDungeonSysZone
 0000:02031BDC       ISS_ChangeZoneSysZone
 0000:02031BE8       ISS_ChangeSwitchSysZone
 0000:02031BF4       ISS_Change3DSoundSysZone
 0000:02031C00       ISS_GetPlayerState
 0000:02031C0C       ISS_GetZoneID
 0000:02031C18       ISS_GetBGMID
 0000:02031C20       ISS_DecideUsedSubsystem
 0000:02031C3C       ISS_CheckBGMDesync
 0000:02031C54       ISS_SwitchSubsystem
 0000:02031C9C       ISS3DSoundSys_Create
 0000:02031CEC       ISS3DSoundSys_Free
 0000:02031CFC       ISS3DSoundSys_Update
 0000:02031D04       ISS3DSoundSys_Enable
 0000:02031D0C       ISS3DSoundSys_Disable
 0000:02031D14       ISS3DSoundSys_ChangeZone
 0000:02031D1C       ISS3DSoundSys_ReqChangeMasterVolume
 0000:02031D28       ISS3DSoundSys_EnableUnit
 0000:02031D30       ISS3DSoundSys_IsUnitEnabled
 0000:02031D3C       ISS3DSoundSys_SetUnitLocation
 0000:02031D44       ISS3DSoundSys_SetListener
 0000:02031D4C       ISS3DSoundSys_Init
 0000:02031D60       ISS3DSoundSys_LoadArcData
 0000:02031DD0       ISS3DSoundSys_FreeEntries
 0000:02031DE8       ISS3DSoundSys_SetUsedConfigID
 0000:02031DF8       ISS3DSoundSys_DecideUsedConfigID
 0000:02031E2C       ISS3DSoundSys_Reset
 0000:02031E68       ISS3DSoundSys_EnableUnitCore
 0000:02031E84       ISS3DSoundSys_SetUnitLocationCore
 0000:02031EA4       ISS3DSoundSys_SetListenerCore
 0000:02031EC4       ISS3DSoundSys_EnableCore
 0000:02031EF0       ISS3DSoundSys_DisableCore
 0000:02031EFC       ISS3DSoundSys_UpdateCore
 0000:02031F48       ISS3DSoundSys_ChangeZoneCore
 0000:02031F50       ISS3DSoundSys_MuteConfig
 0000:02031F70       ISS3DSoundSys_CalcUnitVolume
 0000:02031FB8       ISS3DSoundSys_CalcUnitPan
 0000:02032004       ISS3DSoundUnit_CalcVolume
 0000:02032050       ISS3DSoundSys_RaiseUnitVolume
 0000:02032068       ISS3DSoundSys_LowerUnitVolume
 0000:02032080       ISS3DSoundSys_CommitVolume
 0000:020320A8       ISS3DSoundUnit_CalcPan
 0000:020321D8       ISS3DSoundSys_LowerUnitPan
 0000:020321F0       ISS3DSoundSys_RaiseUnitPan
 0000:02032208       ISS3DSoundSys_CommitPan
 0000:0203222C       ISS3DSoundSys_UpdateMasterVolume
 0000:0203225C       ISS3DSoundSys_AdjustVolume
 0000:02032270       ISSZoneSys_Create
 0000:020322C4       ISSZoneSys_Update
 0000:020322D4       ISSZoneSys_ChangeZone
 0000:020322E4       ISSZoneSys_Enable
 0000:020322F4       ISSZoneSys_LoadArcData
 0000:0203235C       ISSZoneSys_EnableCore
 0000:02032398       ISSZoneSys_ChangeZoneCore
 0000:020323CC       ISSZoneSys_FindZoneDesc
 0000:020323F8       ISSZoneSys_UpdateCore
 0000:02032478       ISSSwitchSys_Create
 0000:02032494       ISSSwitchSys_Free
 0000:020324A4       ISSSwitchSys_Update
 0000:020324F4       ISSSwitchSys_Enable
 0000:020324FC       ISSSwitchSys_Disable
 0000:02032504       ISSSwitchSys_ChangeZone
 0000:0203250C       ISSSwitchSys_SeqMasterVolumeFade
 0000:02032524       ISSSwitchSys_ReqSwitchFadeIn
 0000:02032538       ISSSwitchSys_ReqSwitchFadeOut
 0000:0203254C       ISSSwitchSys_IsSwitchOn
 0000:0203256C       ISSSwitch_ReqSwitchMuteStateChange
 0000:0203258C       ISSSwitchSys_ReqMasterVolumeChange
 0000:020325A0       ISSSwitchSys_Reset
 0000:020325CC       ISSSwitchSys_Alloc
 0000:020325E8       ISSSwitchSys_FreeCore
 0000:020325F0       ISSSwitchSys_LoadArcData
 0000:02032644       ISSSwitchSys_FreeSwitchSets
 0000:02032670       ISSSwitchSys_UpdateSwitchSet
 0000:02032680       ISSSwitchSys_EnableCore
 0000:020326B0       ISSSwitchSys_DisableCore
 0000:020326C4       ISSSwitchSys_ChangeZoneCore
 0000:020326EC       ISSSwitchSys_GetSwitchSetCount
 0000:020326F0       ISSSwitchSys_GetSwitchSet
 0000:020326F8       ISSSwitchSys_GetNowSwitchSet
 0000:020326FC       ISSSwitchSys_IsZoneIDNoNeedSetup
 0000:02032714       ISSSwitchSys_GetSwitchSetForBGM
 0000:02032748       ISSSwitchSys_ChangeSwitchSetForBGM
 0000:0203276C       ISSSwitchSys_CommitVolume
 0000:0203277C       ISSSwitchSys_GetBGMID
 0000:02032784       ISSSwitchSys_IsEnabled
 0000:02032788       ISSSwitchSys_ResetSwitchSetState
 0000:02032798       ISSSwitch_ReqSwitchMuteStateChangeCore
 0000:020327D0       ISSSwitchMuteStateChangeRequest_Set
 0000:020327EC       ISSSwitchMuteStateChangeRequest_Reset
 0000:020327F8       ISSSwitchSys_ProcessMuteStateChangeRequest
 0000:02032844       ISSSwitchMuteStateChangeRequest_IsEnabled
 0000:02032848       ISSSwitchSys_ReqMasterVolumeChangeCore
 0000:0203286C       ISSSwitchMasterVolumeChangeRequest_Set
 0000:02032888       ISSSwitchMasterVolumeChangeRequest_Reset
 0000:02032894       ISSSwitchSys_ProcessMasterVolumeChangeRequest
 0000:020328CC       ISSSwitchMasterVolumeChangeRequest_IsEnabled
 0000:020328D0       ISSSwitchSet_Create
 0000:020328EC       ISSSwitchSet_Free
 0000:020328FC       ISSSwitchSet_LoadArcData
 0000:02032904       ISSSwitchSet_Update
 0000:0203290C       ISSSwitchSet_ReqSwitchFadeIn
 0000:02032914       ISSSwitchSet_UnmuteSwitch
 0000:02032920       ISSSwitchSet_ReqSwitchFadeOut
 0000:02032928       ISSSwitchSet_MuteSwitch
 0000:0203293C       ISSSwitchSet_GetBGMId
 0000:02032944       ISSSwitchSet_CheckHasZone
 0000:0203294C       ISSSwitchSet_IsSwitchOn
 0000:0203295C       ISSSwitchSet_SetMasterVolumeFade
 0000:020329A8       ISSSwitchSet_Init
 0000:020329E0       ISSSwitchSet_Alloc
 0000:020329F8       ISSSwitchSet_FreeCore
 0000:02032A00       ISSSwitchSet_CreateSwitches
 0000:02032A1C       ISSSwitchSet_FreeSwitches
 0000:02032A38       ISSSwitchSet_LoadArcDataCore
 0000:02032ACC       ISSSwitchSet_UpdateCore
 0000:02032B00       ISSSwitchSet_ReqSwitchFadeInCore
 0000:02032B0C       ISSSwitchSet_ReqSwitchFadeOutCore
 0000:02032B18       ISSSwitchSet_Reset
 0000:02032B54       ISSSwitchSet_GetBGMIdCore
 0000:02032B58       ISSSwitchSys_GetZoneIDCount
 0000:02032B5C       ISSSwitchSys_GetZoneID
 0000:02032B64       ISSSwitchSet_CheckHasZoneCore
 0000:02032B90       ISSSwitchSet_IsSwitchOnCore
 0000:02032B9C       ISSSwitchSet_GetSwitch
 0000:02032BA4       ISSSwitchSet_CommitVolume
 0000:02032BC0       ISSSwitchSet_UpdateFadeIn
 0000:02032BF4       ISSSwitchSet_UpdateFadeOut
 0000:02032C28       ISSSwitchSet_AdvanceFade
 0000:02032C4C       ISSSwitchSet_IsFadeOver
 0000:02032C64       ISSSwitch_Create
 0000:02032C74       ISSSwitch_Free
 0000:02032C7C       ISSSwitch_Set
 0000:02032C84       ISSSwitch_IsOn
 0000:02032C8C       ISSSwitch_ReqFadeIn
 0000:02032C94       ISSSwitch_ReqFadeOut
 0000:02032C9C       ISSSwitch_Unmute
 0000:02032CA4       ISSSwitch_Mute
 0000:02032CAC       ISSSwitch_Update
 0000:02032CB4       ISSSwitch_CommitVolume
 0000:02032CBC       ISSSwitch_Alloc
 0000:02032CD8       ISSSwitch_FreeCore
 0000:02032CE0       ISSSwitch_Reset
 0000:02032CF0       ISSSwitch_SetCore
 0000:02032CF8       ISSSwitch_AdvanceFade
 0000:02032D0C       ISSSwitch_IsFadeOver
 0000:02032D1C       ISSSwitch_UpdateCore
 0000:02032D5C       ISSSwitch_Update_ON
 0000:02032D60       ISSSwitch_Update_OFF
 0000:02032D64       ISSSwitch_Update_FADE_IN
 0000:02032D80       ISSSwitch_Update_FADE_OUT
 0000:02032D9C       ISSSwitch_ReqFadeInCore
 0000:02032DB4       ISSSwitch_ReqFadeOutCore
 0000:02032DCC       ISSSwitch_UnmuteCore
 0000:02032DD8       ISSSwitch_MuteCore
 0000:02032DE4       ISSSwitch_GetState
 0000:02032DE8       ISSSwitch_SetState
 0000:02032DF0       ISSSwitch_CalcVolume
 0000:02032E3C       ISSSwitch_CommitVolumeCore
 0000:02032E58       ISSSwitch_IsOnCore
 0000:02032E8C       ISSSwitch_IsOffCore
 0000:02032EC0       GetWeatherAll
 0000:02032F50       IsSeasonCurrent
 0000:02032F68       ResetWeather
 0000:02032F8C       UpdateWeatherToDefault
 0000:02032FE4       GetEntralinkWeatherIfApplicable
 0000:02033074       GetRoute7WeatherIfApplicable
 0000:020330A8       eventBitNum
 0000:020330B0       GetBirthdayZoneWeather
 0000:0203374C       nullsub_105
 0000:02033750       CalcProgressBarPixelLength
 0000:02033768       CalcHPBarColor
 0000:02033794       GetPokemonGraphicsARCID
 0000:02033798       GetPokemonSingleCellCharacterDataNo
 0000:020337D0       GetPokemonCharacterDataNo
 0000:02033808       GetPokemonPaletteDataNo
 0000:02033844       GetPokemonCellsDataNo
 0000:02033878       GetPokemonCellAnimeDataNo
 0000:020338AC       GetPokemonMultiCellsDataNo
 0000:020338E0       GetPokemonMultiCellAnimeDataNo
 0000:02033914       GetPokemonBinFileDataNo
 0000:02033BDC       GetPokemonDataIDBase
 0000:02033D10       GetTrainerSpriteARCID
 0000:02033D1C       GetTrSpriteCharacter1DatID
 0000:02033D28       GetTrSpriteCharacter2DatID
 0000:02033D34       GetTrSpritePaletteDatID
 0000:02033D40       GetTrSpriteCellDatID
 0000:02033D4C       GetTrSpriteCellAnmDatID
 0000:02033D58       GetTrSpriteMultiCellDatID
 0000:02033D64       GetTrSpriteMultiCellAnmDatID
 0000:02033D70       GetTrSpriteBinDatID
 0000:02033DE8       LoadSingleCellSpindaGraphics
 0000:02033E50       MakePokeGraArcHandle
 0000:02034CAC       GFL_G3DScreenTexCreate
 0000:02034D14       jpt_2034D12
 0000:02034D3A       def_2034D12
 0000:02034D5C       GFL_G3DScreenTexCapture
 0000:02034DD4       GFL_G3DAnmMdlDrawHeadless
 0000:02034EA0       aspect
 0000:02034F4C       GameSystem_GetSeason
 0000:02034F58       GameData_GetSeasons
 0000:02034F98       Season_GetRealTime
 0000:02034FB4       Season_GetNext
 0000:02034FC8       Season_GetPrevious
 0000:02034FDC       Season_Set
 0000:02035314       canPlayerExchangePhotos
 0000:0203534C       hasLicenseBeenAccepted
 0000:02035360       getBirthdayMonthDay
 0000:02035990       PokeParty_SetupMetData
 0000:020359B4       PML_UtilSetupMetData
 0000:020359DA       jpt_20359D8
 0000:02035A78       def_20359D8
 0000:02035A84       location
 0000:02035A88       setMetCurrentDateTime
 0000:02035AB8       setFatefulEncounterPkmData
 0000:02035B00       setDreamRadarPokeMetInfo
 0000:02035B28       PML_UtilSetNPokemonMetData
 0000:02035B90       PML_PkmClearMetParams
 0000:02035BA8       PML_PkmSetMetParams
 0000:02035BF4       PML_PkmSetMetParamsEx
 0000:02035C48       PML_UtilSyncHatchAndMetParams
 0000:02035CB8       PML_PkmSetOT
 0000:02035D00       PML_PkmSyncMetLevel
 0000:02035D18       PML_PkmSyncOriginGame
 0000:02035D38       special_transfers
 0000:0203602C       isPkmMoveHmMove
 0000:02036038       doesPkmHaveTmMove
 0000:02036068       showSavegameMainError
 0000:02036074       showSavegameAltError
 0000:02036088       playSavegameError
 0000:020360C4       displaySavegameError
 0000:02036190       displayLightBlueErrorWindow
 0000:02036260       loadDisplayPositionFont
 0000:02036314       StartMenuEventInit
 0000:02036318       StartMenuEventTick
 0000:0203632E       jpt_203632C
 0000:02036388       def_203632C
 0000:020363AC       StartMenuEventEnd
 0000:020363B0       getYearMonthDay
 0000:0203696E       jpt_203696C
 0000:02036A10       def_203696C
 0000:02036CB4       getSpecialJoinAveTextToBuf
 0000:02037118       joinAveTextHandler
 0000:02038F2C       JoinAvenue_GetParam
 0000:02038F42       jpt_2038F40
 0000:0203908A       def_2038F40
 0000:02039428       setImportantJABlockAddresses
 0000:020394AC       gfRand
 0000:02039850       join_ave_raffle_shop
 0000:02039AAC       GFL_HeapGetBase
 0000:02039AC8       GFL_HeapGetParentBase
 0000:02039AE4       GFL_HeapGetRawPtr
 0000:02039B00       GFL_HeapGetAllocationCountCore
 0000:02039B1C       GFL_HeapMgrInit
 0000:02039C08       GFL_HeapAddChild
 0000:02039C74       GFL_HeapAddRoot
 0000:02039CBC       GFL_HeapAdd
 0000:02039D30       GFL_HeapDeleteCore
 0000:02039DC8       GFL_HeapAllocateCore
 0000:02039E58       GFL_HeapFreeCore
 0000:02039EDC       GFL_HeapCreateAllocatorCore
 0000:02039F24       GFL_HeapResizeCore
 0000:02039F8C       GFL_HeapGetFreeSizeCore
 0000:02039FBC       GFL_HeapGetHighestAllocatableSize
 0000:02039FEC       GFL_HeapGetSize
 0000:0203A020       GFL_HeapGetValidHeapBase
 0000:0203A04C       GFL_HeapGetAllocationCount
 0000:0203A080       GFL_HeapGetBlockHeapID
 0000:0203A088       GFL_HeapGetBlockDebugInfoPtr
 0000:0203A090       GFL_HeapStatusCheck
 0000:0203A0C4       GFL_HeapGetLastResult
 0000:0203A0D0       GFL_HeapDTCMInitCore
 0000:0203A130       GFL_HeapDTCMAllocateCore
 0000:0203A144       freeBlkFromDTCM
 0000:0203A15C       GFL_MemInit
 0000:0203A188       GFL_HeapCreateChild
 0000:0203A1A4       GFL_HeapCreateRoot
 0000:0203A1C0       GFL_HeapHandleAllocResult
 0000:0203A1D2       jpt_203A1D0
 0000:0203A1FA       def_203A1D0
 0000:0203A1FC       GFL_HeapDelete
 0000:0203A228       GFL_HeapAllocate
 0000:0203A278       GFL_HeapFree
 0000:0203A288       GFL_HeapCreateAllocator
 0000:0203A298       GFL_HeapResize
 0000:0203A2B6       jpt_203A2B4
 0000:0203A2D2       def_203A2B4
 0000:0203A2D4       GFL_HeapGetFreeSize
 0000:0203A2E8       GFL_HeapStatusValidate
 0000:0203A30C       GFL_HeapSetBlockDebugInfo
 0000:0203A32C       GFL_HeapDebugCopyFileName
 0000:0203A380       GFL_HeapDumpAllocFailure
 0000:0203A3A0       GFL_HeapDebugNotifyTrackedAlloc
 0000:0203A3C4       GFL_HeapDebugNotifyTrackedFree
 0000:0203A3F8       GFL_HeapDebugTraceAlloc
 0000:0203A414       GFL_HeapDebugTraceFree
 0000:0203A434       GFL_HeapDeleteCleanCheck
 0000:0203A448       dumpFunc
 0000:0203A4CC       GFL_HeapDumpOnFailure
 0000:0203A508       GFL_HeapDTCMInit
 0000:0203A518       GFL_HeapDTCMAllocate
 0000:0203A520       _freeBlkFromDTCM
 0000:0203A528       GFL_TCBMgrInitTasks
 0000:0203A568       GFL_TCBMgrGetReadyTask
 0000:0203A584       GFL_TCBMgrNotifyReadyTask
 0000:0203A5B0       GFL_TCBMgrCalcAllocSize
 0000:0203A5B8       GFL_TCBMgrCreate
 0000:0203A5DC       GFL_TCBMgrSetup
 0000:0203A5FC       GFL_TCBMgrUpdate
 0000:0203A63C       nullsub_22
 0000:0203A640       GFL_TCBMgrAddTask
 0000:0203A654       GFL_TCBMgrAddTaskCore
 0000:0203A6D4       GFL_TCBRemove
 0000:0203A6F8       GFL_TCBSetCallbackFunc
 0000:0203A6FC       GFL_TCBGetData
 0000:0203A700       GFL_TCBExMgrGetTask
 0000:0203A70C       GFL_TCBExMgrGetReadyTask
 0000:0203A728       GFL_TCBExMgrNotifyReadyTask
 0000:0203A73C       GFL_TCBExMgrInitTask
 0000:0203A750       GFL_TCBExRemove
 0000:0203A778       GFL_TCBExGetDataCore
 0000:0203A788       GFL_TCBExMgrInitTasks
 0000:0203A7B8       GFL_TCBExMgrCreate
 0000:0203A820       GFL_TCBExMgrUpdate
 0000:0203A868       GFL_TCBExMgrFree
 0000:0203A87C       GFL_TCBExMgrFreeTasks
 0000:0203A89C       GFL_TCBExRequestEnd
 0000:0203A8B4       GFL_TCBExMgrAddTask
 0000:0203A93C       GFL_TCBExGetData
 0000:0203A944       GCTX_ProcMgrInit
 0000:0203A954       GCTX_ProcMgrUpdate
 0000:0203A964       GCTX_ProcMgrQueueProc
 0000:0203A980       GCTX_ProcMgrReplaceProc
 0000:0203A99C       CreateGameProcManager
 0000:0203A9A4       GFL_ProcMgrUpdate
 0000:0203A9AC       FreeGameProcManager
 0000:0203A9B4       QueueGameProc
 0000:0203A9BC       GFL_ProcMgrCreate
 0000:0203A9E8       GFL_ProcMgrSwitchQueued
 0000:0203AA10       GFL_ProcMgrUpdateCore
 0000:0203AA8C       GFL_ProcMgrFree
 0000:0203AAA4       GFL_ProcMgrReplaceProc
 0000:0203AAB4       GFL_ProcMgrQueueProc
 0000:0203AADC       GFL_ProcCreate
 0000:0203AB10       GFL_ProcFree
 0000:0203AB18       GFL_ProcInitSubsystem
 0000:0203AB3C       GFL_ProcReleaseSubsystem
 0000:0203AB4C       GFL_ProcUpdate
 0000:0203AB62       jpt_203AB60
 0000:0203ABD4       def_203AB60
 0000:0203ABD8       mainBackupSystemInit
 0000:0203AC30       SaveData_Init
 0000:0203AD60       SaveData_InitMain
 0000:0203AD80       freeSaveBlocks
 0000:0203ADB0       SaveData_GetBlockPtr
 0000:0203ADC0       initSaveBlkCallbacks
 0000:0203B0B4       getLockIDStatus_inline_stub
 0000:0203BA0A       jpt_203BA08
 0000:0203BCE8       def_203BA08
 0000:0203BD98       getCrcOfSaveBlockStoreAtEnd
 0000:0203BFA8       identifyGameCardBackup
 0000:0203C024       readFlashWaitSuccess
 0000:0203C09C       setCardWrittenVerified
 0000:0203C148       finishBackupGetResult
 0000:0203C17C       jpt_203C17A
 0000:0203C192       def_203C17A
 0000:0203C1B4       enable
 0000:0203C1B8       cancelCardProcess
 0000:0203C214       getLockIDStatus
 0000:0203C220       SaveData_InitTable
 0000:0203C27C       freeIntermediateSaveDataBlocks
 0000:0203C290       runSaveBlkInitializers
 0000:0203C2E4       getSizeSaveTblBlk
 0000:0203C314       SaveData_BuildTable
 0000:0203C3B0       getStartOffsetOfSaveBlockDataInSave
 0000:0203C3DC       getSizeOfSaveBlockData
 0000:0203C408       getSaveSize
 0000:0203C40C       GetSaveDataSize
 0000:0203C410       GFL_AreaManCreate
 0000:0203C474       GFL_AreaManFree
 0000:0203C47C       GFL_AreaManAllocDefault
 0000:0203C48C       GFL_AreaManAllocHead
 0000:0203C4B0       GFL_AreaManAllocHeadOptUntil8
 0000:0203C58C       GFL_AreaManAllocHeadOptOver8
 0000:0203C658       GFL_AreaManAllocTail
 0000:0203C68C       GFL_AreaManAllocTailOptUntil8
 0000:0203C75C       GFL_AreaManAllocTailOptOver8
 0000:0203C830       GFL_AreaManSetBits
 0000:0203C858       GFL_AreaManDeAlloc
 0000:0203C8E0       GFL_AreaManGetAllocatableBitIndexHead
 0000:0203C91C       GFL_AreaManGetAllocatableBitIndexTail
 0000:0203C950       GFL_AreaManFreeBitsOptOneByte
 0000:0203C970       GFL_AreaManSetBitsCore
 0000:0203CA18       nullsub_11
 0000:0203CA50       GFL_VRAMManagerCalcBankSizeBytes
 0000:0203CA78       GFL_VRAMManagerCreate
 0000:0203CAC8       GFL_VRAMManagerFree
 0000:0203CADC       GFL_VRAMManagerGetObjTileMappingBoundary
 0000:0203CB08       GFL_VRAMManagerAllocInit
 0000:0203CB14       GFL_VRAMManagerAllocIsInvalid
 0000:0203CB2C       GFL_VRAMManagerAlloc
 0000:0203CB6C       GFL_VRAMManagerDeAlloc
 0000:0203CB84       GFL_VRAMManagerGetAllocAddress
 0000:0203CB90       GFL_DebugSetAssertHandlers
 0000:0203CBA0       GFL_DebugSetAssertFailCallback
 0000:0203CBAC       GFL_DebugAssertFail
 0000:0203CBC0       GFL_DebugAssertFailEx
 0000:0203CBDC       GFL_DebugPrintCreateSurface
 0000:0203CCD0       GFL_DebugPrintOutputMessage
 0000:0203CD10       GFL_DebugPrintCommit
 0000:0203CD5C       GFL_DebugSetVerboseAssertHandlers
 0000:0203CD68       result
 0000:0203CD78       GFL_OvlManagerInit
 0000:0203CDE0       GFL_OvlEntryUnload
 0000:0203CDF4       GFL_OvlUnload
 0000:0203CE38       GFL_OvlLoad
 0000:0203CED0       GFL_OvlCheckMemoryCollision
 0000:0203CF68       GFL_OvlGetList
 0000:0203CF90       GFL_OvlGetListCount
 0000:0203CFC0       GFL_OvlGetMemoryRegion
 0000:0203D004       GFL_OvlGetMemoryRange
 0000:0203D038       GFL_HIDInit
 0000:0203D0C8       GFL_HIDUpdate
 0000:0203D118       GCTX_HIDUpdate
 0000:0203D250       SetUICallback
 0000:0203D258       SetUICallbackStatic
 0000:0203D2E0       GFL_HIDSetSoftResetCallback
 0000:0203D2E8       GCTX_HIDSetSoftResetCallback
 0000:0203D300       GFL_HIDGetKeypadManager
 0000:0203D304       GCTX_HIDGetInstance
 0000:0203D374       battery
 0000:0203D3FC       GetIsShouldUICallback
 0000:0203D410       CallInputCallback
 0000:0203D44C       setBacklightBothScreens
 0000:0203D46C       sleepSetup
 0000:0203D524       GFL_HIDDoSoftReset
 0000:0203D5A8       GFL_HIDSetUpdateRate
 0000:0203D5C0       GCTX_HIDSetUpdateRate
 0000:0203D5D4       GCTX_HIDGetUpdateRate
 0000:0203D5F4       GCTX_HIDChangeFPS
 0000:0203D614       SystemUI_GetBatteryLevel
 0000:0203D688       getTouchpadBlock
 0000:0203D704       initTouchpad
 0000:0203D78C       getTouchpadInput
 0000:0203D910       touchpadData
 0000:0203DBE0       GFL_HIDClearTouchState
 0000:0203DC70       GFL_HIDCreateKeypadManager
 0000:0203DCA0       GFL_HIDUpdateKeypad
 0000:0203DD7C       GCTX_HIDUpdateKeypad
 0000:0203DD88       keypressInterpreter
 0000:0203DED0       setFramecounts
 0000:0203DEE0       setKeypressFramecounts
 0000:0203DEF4       setTempSpaceToKeyBlock
 0000:0203DF00       setKeyBlkStarted
 0000:0203DF10       GFL_HIDGetPressedKeys
 0000:0203DF28       GCTX_HIDGetPressedKeys
 0000:0203DF34       GFL_HIDGetHeldKeys
 0000:0203DF4C       GCTX_HIDGetHeldKeys
 0000:0203DF58       GFL_HIDGetTypedKeys
 0000:0203DF70       GCTX_HIDGetTypedKeys
 0000:0203DFA4       GFL_HIDClearKeypadState
 0000:0203E17C       nullsub_7
 0000:0203E4CC       loadWifiStrengthIcons
 0000:0203E6E4       getObjBank
 0000:0203E778       copyEmptyOAM
 0000:02040E38       nullsub_62
 0000:020412FC       nullsub_63
 0000:020413F0       nullsub_66
 0000:0204146C       nullsub_64
 0000:02041470       nullsub_65
 0000:02041E24       nullsub_67
 0000:02041E5C       nullsub_68
 0000:02041E60       nullsub_69
 0000:02041E64       nullsub_70
 0000:0204247C       nullsub_8
 0000:020426BA       jpt_20426B8
 0000:02042728       def_20426B8
 0000:02042ED0       allocConfigDSSoftwareFeature
 0000:0204321A       jpt_2043218
 0000:020432C2       def_2043218
 0000:02043E6C       initTableArea
 0000:02043EC4       GFL_STD_MemCmp
 0000:02043EEC       GFL_STD_StrLen
 0000:02043F00       _STD_CompareNString
 0000:02043F08       GFL_RandomUpdateMT
 0000:02043F58       GFL_RandomMT
 0000:0204406C       seed
 0000:02044088       getCRC16
 0000:020440C4       buildSeed
 0000:0204412C       addUpDataStream
 0000:02044148       decryptData
 0000:02044174       _decryptData
 0000:0204417C       crypt_SAV_BVideo_MG_misc_data
 0000:0204423C       RTC_GetCachedDateTime
 0000:02044264       RTC_GetCachedTime
 0000:02044278       RTC_GetCachedDate
 0000:0204428C       RTC_ConvertDaySecondsCached
 0000:020442B0       RTC_ConvertSecondsCached
 0000:020442B8       pRTC_DATE_CACHE
 0000:020442BC       pRTC_TIME_CACHE
 0000:0204442C       v2
 0000:020444D0       GFL_BGSysCreate
 0000:02044554       GFL_BGSysFree
 0000:02044590       GFL_BGSysAllocChar
 0000:02044650       GFL_BGSysAllocCharAt
 0000:02044694       GFL_BGSysFreeCharMemory
 0000:020446D2       jpt_20446D0
 0000:02044734       def_20446D0
 0000:0204473C       GFL_BGSysSetLCDConfig
 0000:02044774       GFL_BGSysSetLCDConfigForEngine
 0000:02044798       GFL_BGSysCreateBG
 0000:020447BE       jpt_20447BC
 0000:02044A70       def_20447BC
 0000:02044BB0       GFL_BGSysReleaseBG
 0000:02044BE4       GFL_BGSysSet3DBGPriority
 0000:02044C04       GFL_BGSysSetBGPriority
 0000:02044C14       jpt_2044C12
 0000:02044CA2       def_2044C12
 0000:02044CC4       GFL_BGSysSetBGEnabled
 0000:02044CD6       jpt_2044CD4
 0000:02044D24       def_2044CD4
 0000:02044D28       GFL_BGSysMoveBG
 0000:02044D58       jpt_2044D56
 0000:02044E5C       def_2044D56
 0000:02044E8C       GFL_BGSysGetBGOffsetX
 0000:02044EA0       GFL_BGSysGetBGOffsetY
 0000:02044EB4       GFL_BGSysSetBGTransformEx
 0000:02044EDC       GFL_BGSysSetBGTransform
 0000:02044EF0       jpt_2044EEE
 0000:02044F6C       def_2044EEE
 0000:02044F74       addr
 0000:02044F84       GFL_BGSysTransferUncomp
 0000:02044FBC       GFL_BGSysLoadScr
 0000:02044FDC       GFL_BGSysLoadScrCore
 0000:02045080       GFL_BGSysBufferScrDefault
 0000:0204508C       GFL_BGSysBufferScr
 0000:020450AC       GFL_BGSysLoadChar
 0000:020450D4       GFL_BGSysLoadCharDynamic
 0000:020450F8       GFL_BGSysClearCharCore
 0000:02045144       GFL_BGSysFillChar
 0000:02045160       jpt_204515E
 0000:020451F8       def_204515E
 0000:02045290       GFL_BGSysFreeFilledChar
 0000:020452A8       jpt_20452A6
 0000:02045346       def_20452A6
 0000:0204534C       GFL_BGSysUploadStdPalette
 0000:0204537C       GFL_BGSysResetStdPalette
 0000:02045394       GFL_BGSysConvCoordsToTileIndex
 0000:020453A4       jpt_20453A2
 0000:02045402       def_20453A2
 0000:02045404       GFL_BGSysConvCoordsToTileIndexEx
 0000:02045444       jpt_2045442
 0000:020454CE       def_2045442
 0000:020454D8       GFL_BGSysLoadScrAreaAll
 0000:02045500       GFL_BGSysLoadScrArea
 0000:02045598       GFL_BGSysLoadScrAreaLarge
 0000:02045630       GFL_BGSysFillScrArea
 0000:02045698       GFL_BGSysSetScrPaletteNo
 0000:02045734       GFL_BGSysClearBG
 0000:02045744       GFL_BGSysClearChar
 0000:02045764       GFL_BGSysClearScr
 0000:02045790       GFL_BGSysFillScr
 0000:020457BC       GFL_BGSysFillScrAsync
 0000:020457E8       GFL_BGSysGetBGCharAddress
 0000:020457FA       jpt_20457F8
 0000:0204583A       def_20457F8
 0000:02045840       GFL_BGSysIsScrHeapExists
 0000:02045854       GFL_BGSysGetBGOffsetX2
 0000:02045868       GFL_BGSysGetBGOffsetY2
 0000:0204587C       GFL_BGSysGetBGMode
 0000:02045890       GFL_BGSysGetBGColorPaletteMode
 0000:020458A4       GFL_BGSysGetBGBytesPerTile
 0000:020458B8       GFL_BGSysGetBGPriority
 0000:020458CE       jpt_20458CC
 0000:02045A5E       def_20458CC
 0000:02045A88       GFL_BGSysUpdate
 0000:02045AAC       GFL_BGSysLoadQueuedScreens
 0000:02045BA8       GFL_BGSysQueueScrLoad
 0000:02045BC0       GFL_BGSysFlushTransform
 0000:02045E48       GFL_BGSysMoveBGReq
 0000:02045E74       GFL_BGSysRotateBGReq
 0000:02045EA0       GFL_BGSysScaleBGReq
 0000:02045ECC       GFL_BGSysAdjustBGOriginReq
 0000:02046090       GFL_BGSysCalcScreenSizeMode
 0000:02046104       GFL_BGSysGetTileDimensions
 0000:02046114       jpt_2046112
 0000:02046152       def_2046112
 0000:02046154       GFL_BGSysAdjustBGMoveCoord
 0000:02046164       jpt_2046162
 0000:02046196       def_2046162
 0000:02046198       GFL_BGSysSetBGTransformIdentity
 0000:020461C4       GFL_BGSysUploadScr
 0000:020461E6       jpt_20461E4
 0000:02046254       def_20461E4
 0000:02046258       GFL_BGSysLoadCharCore
 0000:020462C8       GFL_BGSysUploadChar
 0000:020462EA       jpt_20462E8
 0000:02046358       def_20462E8
 0000:0204635C       GFL_BGSysLoadScrArea_TEXT
 0000:020464D4       GFL_BGSysLoadScrArea_AFFINE
 0000:02046634       GFL_BGSysLoadScrArea_EXTENDED
 0000:020467A8       GFL_BGSysFillScrArea_TEXT
 0000:02046858       GFL_BGSysFillScrArea_AFFINE
 0000:020468CC       GFL_BGSysFillScrArea_EXTENDED
 0000:020469A8       GFL_BGSysAllocScreen
 0000:020469BC       jpt_20469BA
 0000:02046A22       def_20469BA
 0000:02046A28       GFL_BGSysFreeScreenMemory
 0000:02046A3C       jpt_2046A3A
 0000:02046AA2       def_2046A3A
 0000:02046B54       GFL_BGSysAdjustBGRotateCoord
 0000:02046B78       GFL_BGSysAdjustBGScaleCoord
 0000:02046B88       jpt_2046B86
 0000:02046BC0       def_2046B86
 0000:02046BC4       GFL_BGSysAdjustBGOriginCoord
 0000:02046BD6       jpt_2046BD4
 0000:02046C08       def_2046BD4
 0000:02046C0C       GFL_BGSysInitVRAM
 0000:02046C6C       GFL_BGSysSetVRAMBanks
 0000:02046CFC       GFL_BGSysDisableBGsA
 0000:02046D0C       GFL_BGSysDisableOBJA
 0000:02046D1C       GFL_BGSysDisableAllA
 0000:02046D28       GFL_BGSysSetBGEnabledA
 0000:02046D64       GFL_BGSysSetEnabledBGsA
 0000:02046D84       GFL_BGSysDisableBGsB
 0000:02046D94       GFL_BGSysDisableOBJB
 0000:02046DA4       GFL_BGSysDisableAllB
 0000:02046DB0       GFL_BGSysSetBGEnabledB
 0000:02046DEC       GFL_BGSysSetEnabledBGsB
 0000:02046E0C       GFL_BGSysEnableEngines
 0000:02046E24       GFL_BGSysSetDisplayLayout
 0000:02046E3C       GFL_BGSysGetEnabledBGsA
 0000:02046E48       GFL_BGSysGetEnabledBGsB
 0000:02046E54       GFL_BitmapCreate
 0000:02046EA0       GFL_BitmapWrap
 0000:02046ED4       GFL_BitmapWrapVRAM
 0000:02046F08       GFL_BitmapFree
 0000:02046F20       GFL_BitmapGetPixelData
 0000:02046F24       GFL_BitmapGetWidth
 0000:02046F28       GFL_BitmapGetHeight
 0000:02046F2C       GFL_BitmapCalcPixelDataSize
 0000:02046F44       GFL_BitmapCopy
 0000:02046F68       GFL_G2DIOLoadBitmap
 0000:02046FD8       GFL_BitmapConvFromCHAR
 0000:0204702C       GFL_BitmapGetBytesPerTile
 0000:02047034       GFL_BitmapCopyArea
 0000:020470F8       GFL_BitmapCopyAreaRebased
 0000:02047124       GFL_BitmapFillArea
 0000:02047168       GFL_BitmapFill
 0000:02047194       GFL_BitmapCopyArea_IDX4
 0000:020473FC       GFL_BitmapCopyArea_IDX8
 0000:02047618       GFL_BitmapCopyAreaRebased_IDX8
 0000:02047868       GFL_BitmapCopyArea_IDX4_VRAM
 0000:02047B04       GFL_BitmapCopyArea_IDX8_VRAM
 0000:02047D00       GFL_BitmapFillArea_IDX4
 0000:02047DC0       GFL_BitmapFillArea_IDX8
 0000:02047E54       GFL_BitmapFillArea_IDX4_VRAM
 0000:02047F4C       GFL_BitmapFillArea_IDX8_VRAM
 0000:02047FE0       GFL_BitmapMakeLinear
 0000:020480AC       BmpWin_InitAllocator
 0000:020480D4       BmpWin_FreeAllocator
 0000:020480EC       BmpWin_CreateDynamic
 0000:02048150       BmpWin_CreateStatic
 0000:020481AC       BmpWin_CreateCore
 0000:0204823C       BmpWin_Free
 0000:02048270       BmpWin_FlushChar
 0000:02048298       BmpWin_FlushMap
 0000:02048500       BmpWin_GetBGIndex
 0000:0204850C       BmpWin_GetWidth1
 0000:02048510       BmpWin_GetHeight2
 0000:02048514       BmpWin_GetPosX
 0000:02048518       BmpWin_GetPosY
 0000:02048520       BmpWin_GetBitmap
 0000:02048524       BmpWin_GetPaletteIndex
 0000:02048538       GFL_StrBufSetTerminator
 0000:02048544       GFL_StrBufIsValid
 0000:0204855C       GFL_StrBufCreate
 0000:02048590       GFL_StrBufFree
 0000:0204859C       GFL_StrBufClear
 0000:020485AC       GFL_StrBufCopy
 0000:020485D0       GFL_StrBufClone
 0000:020485E8       GFL_StrBufCmp
 0000:02048624       GFL_StrBufGetCharCount
 0000:02048628       GFL_StrBufInsertTerminator
 0000:02048640       GFL_StrBufLoadString
 0000:02048684       GFL_StrBufLoadFixedString
 0000:020486C4       GFL_StrBufCopyString
 0000:020486E4       GFL_StrBufStoreString
 0000:0204871C       GFL_StrBufGetStringPtr
 0000:02048720       GFL_StrBufGetTerminator
 0000:0204872C       GFL_StrBufUncompressNone
 0000:02048760       GFL_StrBufAppend
 0000:02048788       GFL_MsgSysLoadData
 0000:02048800       GFL_MsgDataFree
 0000:02048828       GFL_MsgDataCreateFromHandle
 0000:02048864       GFL_MsgDataLoadStrbuf
 0000:02048944       GFL_MsgDataDecryptStrbuf
 0000:02048968       GFL_MsgDataDecryptString
 0000:020489B8       GFL_MsgDataLoadStrbufNew
 0000:02048A14       GFL_MsgDataGetLineCount
 0000:02048A1C       GFL_MsgDataLoadRawStr
 0000:02048AD8       GFL_MsgDataCreateFileHandle
 0000:02048B2C       GFL_MsgDataPreloadFull
 0000:02048B70       GFL_MsgDataUpdateLanguage
 0000:02048B90       GFL_MsgDataInitValidLangID
 0000:02048BB0       GFL_MsgDataGetDefaultLangID
 0000:02048BBC       GFL_SystemFontInit
 0000:02048C58       GFL_SystemFontGetGlyph
 0000:02048CC0       GFL_SystemFontUnpackBits
 0000:02048CE8       GFL_SystemFontGetHeight
 0000:02048CF8       GFL_SystemFontGetTabSize
 0000:02048CFC       GFL_SystemFontSetColorIndices
 0000:02048D54       GFL_G3DSysCreate
 0000:02048F44       ppG3D_SYSTEM
 0000:02048F70       GFL_G3DSysFree
 0000:02048FB0       GFL_G3DSysMtxGetProjection
 0000:02048FE8       GFL_G3DSysMtxSetProjection
 0000:0204912C       GFL_G3DSysLightSet
 0000:02049178       GFL_G3DSysMtxGetViewLookAt
 0000:020491B4       GFL_G3DSysMtxSetViewLookAt
 0000:02049238       y
 0000:02049240       GFL_G3DSysSetSwapBufferParams
 0000:02049274       GFL_G3DSysMtxSetFlushMode
 0000:020492B4       NNS_G3DFlushProjection
 0000:020492BC       GFL_G3DResGetAllocSize
 0000:020492C0       GFL_G3DResBindData
 0000:020492E8       GFL_G3DResSetup
 0000:02049370       GFL_G3DSysReadArcSysResource
 0000:020493B0       GFL_G3DSysReadArcToolResource
 0000:020493F0       GFL_G3DSysReadFSResource
 0000:02049430       GFL_G3DResFree
 0000:0204945C       GFL_G3DResGetResData
 0000:02049460       GFL_G3DResCheckType
 0000:020494BC       GFL_G3DResTrimTexData
 0000:020494D8       GFL_G3DResUploadTexData
 0000:02049544       GFL_G3DResUploadAndReleaseTexData
 0000:02049560       GFL_G3DResFreeTexData
 0000:020495CC       GFL_G3DResSetupTexData
 0000:0204961C       GFL_G3DResUploadTexDataCore
 0000:0204964C       GFL_G3DResGetTexData
 0000:02049658       GFL_G3DResAllocTexMem
 0000:020496AC       GFL_G3DResAllocPltMem
 0000:020496E0       GFL_G3DResIsTexUploadDone
 0000:02049704       GFL_G3DResGetTexVRAMHandle
 0000:02049728       GFL_G3DResGetPltVRAMHandle
 0000:02049740       GFL_G3DResGetTexImageData
 0000:0204974C       GFL_G3DResGetTexPaletteData
 0000:02049758       GFL_G3DMdlCreate
 0000:02049800       GFL_G3DMdlFree
 0000:0204982C       GFL_G3DMdlGetMdlResource
 0000:02049830       GFL_G3DMdlGetTexResource
 0000:02049834       GFL_G3DMdlGetEngineModel
 0000:02049838       GFL_G3DAnmCreate
 0000:020498B4       GFL_G3DAnmFree
 0000:020498E0       GFL_G3DAnmGetRenderObj
 0000:020498E4       GFL_G3DActorCreate
 0000:02049960       GFL_G3DActorFree
 0000:02049990       GFL_G3DActorGetMdl
 0000:02049994       GFL_G3DActorGetAnm
 0000:0204999C       GFL_G3DActorGetAnmCount
 0000:020499A0       GFL_G3DActorBindAnm
 0000:020499C0       GFL_G3DActorUnbindAnm
 0000:020499E0       GFL_G3DActorResetAnmFrame
 0000:020499F8       GFL_G3DActorGetAnmFrame
 0000:02049A10       GFL_G3DActorSetAnmFrame
 0000:02049A38       GFL_G3DActorGetAnmFrameCount
 0000:02049A54       GFL_G3DActorStepAnmFrame
 0000:02049A90       GFL_G3DActorStepAnmFrameLoop
 0000:02049AC4       GFL_G3DSysReset
 0000:02049ACC       GFL_G3DSysReqSwapBuffers
 0000:02049AE4       GFL_G3DSysCheckSwapBuffers
 0000:02049B1C       GFL_G3DSysMtxViewFlush
 0000:02049B88       GFL_G3DSysDrawObj
 0000:02049BD8       GFL_G3DSysDrawObjBBoxCull
 0000:02049C38       GFL_G3DActorTestBBox
 0000:02049CB4       TestModelBoundingBox
 0000:02049D08       GFL_G3DSysDispatchDraw
 0000:02049D40       GFL_G3DSysResetGeometryCounter
 0000:02049D50       GFL_G3DMgrCreate
 0000:02049E08       GFL_G3DMgrFree
 0000:02049E2C       GFL_G3DMgrNewScene
 0000:02049E98       GFL_G3DMgrNewSceneFast
 0000:02049F04       GFL_G3DMgrNewSceneFastEx
 0000:02049F78       GFL_G3DMgrDeleteScene
 0000:02049FA0       GFL_G3DMgrLoadResources
 0000:0204A00C       jpt_204A00A
 0000:0204A088       def_204A00A
 0000:0204A0A0       GFL_G3DMgrProcessArcLoadReq
 0000:0204A0DC       GFL_G3DMgrFreeSceneResources
 0000:0204A130       GFL_G3DMgrLoadActors
 0000:0204A19E       jpt_204A19C
 0000:0204A212       def_204A19C
 0000:0204A3EC       GFL_G3DMgrLoadActorsFast
 0000:0204A524       GFL_G3DMgrFreeSceneActors
 0000:0204A5CC       GFL_G3DMgrGetSceneResCount
 0000:0204A5D4       GFL_G3DMgrGetSceneFirstActorIdx
 0000:0204A5DC       GFL_G3DSceneGetNodeActorCount
 0000:0204A5E4       GFL_G3DMgrGetResource
 0000:0204A5EC       GFL_G3DMgrGetActor
 0000:0204A5F4       GFL_G3DCameraCreate
 0000:0204A65C       GFL_G3DCameraFree
 0000:0204A664       GFL_G3DCameraFlush
 0000:0204A678       GFL_G3DCameraGetLookatPos
 0000:0204A688       GFL_G3DCameraSetLookatPos
 0000:0204A698       GFL_G3DCameraGetLookatUpVector
 0000:0204A6A8       GFL_G3DCameraSetLookatUpVector
 0000:0204A6B8       GFL_G3DCameraGetLookatTarget
 0000:0204A6C8       GFL_G3DCameraSetLookatTarget
 0000:0204A6D8       GFL_G3DCameraGetProjectionZNear
 0000:0204A6E0       GFL_G3DCameraSetProjectionZNear
 0000:0204A6E8       GFL_G3DCameraSetProjectionZFar
 0000:0204A6F0       GFL_G3DCameraGetProjectionType
 0000:0204A6F4       GFL_G3DCameraPerspectiveSetFOVSin
 0000:0204A6F8       GFL_G3DCameraPerspectiveGetFOVCos
 0000:0204A700       GFL_G3DCameraPerspectiveSetFOVCos
 0000:0204A704       GFL_G3DCameraOrthoGetTop
 0000:0204A70C       GFL_G3DCameraOrthoSetTop
 0000:0204A710       GFL_G3DCameraOrthoGetBottom
 0000:0204A718       GFL_G3DCameraOrthoSetBottom
 0000:0204A71C       GFL_G3DLightCreate
 0000:0204A768       GFL_G3DLightFree
 0000:0204A770       GFL_G3DLightFlush
 0000:0204A78C       GFL_G3DLightGetDirVector
 0000:0204A7A0       GFL_G3DLightSetDirVector
 0000:0204A7B8       GFL_G3DLightGetColor
 0000:0204A7C4       GFL_G3DLightSetColor
 0000:0204A7D0       GFL_ArcSysInit
 0000:0204A7DC       ppARC_SYSTEM
 0000:0204A7E0       GFL_ArcSysReadImpl
 0000:0204A814       GFL_ArcSysReadHeapNewImpl
 0000:0204A864       GFL_ArcSysInitArcHandle
 0000:0204A89C       ArchiveMoveImageTop
 0000:0204A954       GFL_ArcSysRead
 0000:0204A960       GFL_ArcSysReadHeapNew
 0000:0204A96C       GFL_ArcSysReadRange
 0000:0204A97C       GFL_ArcSysReadHeapNewRange
 0000:0204A98C       GFL_ArcSysReadHeapNewDirect
 0000:0204A9E4       GFL_ArcSysGetDataMax
 0000:0204AA30       GFL_ArcSysGetDataLength
 0000:0204AA5C       GFL_ArcSysCreateFileHandle
 0000:0204AA8C       GFL_ArcSysCreateMemoryHandle
 0000:0204AAC8       GFL_ArcToolInit
 0000:0204AB38       GFL_ArcToolFree
 0000:0204AB48       GFL_ArcToolReadHeapNew
 0000:0204ABD0       GFL_ArcToolRead
 0000:0204AC38       GFL_ArcToolGetDataLength
 0000:0204AC84       GFL_ArcToolReadRange
 0000:0204ACEC       GFL_ArcToolCopyDataOfs
 0000:0204AD40       GFL_ArcToolGetDataOfs
 0000:0204AD90       GFL_ArcToolReadRaw
 0000:0204ADA0       GFL_ArcToolSeek
 0000:0204ADAC       GFL_ArcToolGetDataMax
 0000:0204ADB4       GFL_BGSysLoadNCGRStatic
 0000:0204ADD4       GFL_BGSysLoadArcNCGRStatic
 0000:0204ADF4       GFL_BGSysLoadNCGRStaticCore
 0000:0204AE2C       GFL_BGSysLoadNCGRDynamic
 0000:0204AE68       GFL_BGSysLoadArcNCGRDynamic
 0000:0204AEA4       GFL_BGSysLoadNCGRDynamicCore
 0000:0204AEE4       loadOBJCharToVram
 0000:0204AF00       unpackAndLoadOBJChar
 0000:0204AF44       loadBGScrToVramByNarcNoReserveNegAlign
 0000:0204AF7C       loadBGScrToVramByFileNoReserveNegAlign
 0000:0204AFB4       loadBGScrToVramByNarcNoReserve
 0000:0204AFDC       GFL_G2DIOLoadNSCRSync
 0000:0204B004       GFL_G2DIOLoadNSCRAsync
 0000:0204B02C       GFL_BGSysLoadNSCR
 0000:0204B0E4       GFL_BGSysLoadNCLRDefault
 0000:0204B100       GFL_G2DIOLoadArcNCLRDefault
 0000:0204B11C       GFL_G2DIOLoadNCLR
 0000:0204B150       GFL_G2DIOLoadArcNCLR
 0000:0204B184       GFL_BGSysLoadNCLR
 0000:0204B1FA       jpt_204B1F8
 0000:0204B272       def_204B1F8
 0000:0204B290       GFL_G2DIOReadBGNCGR
 0000:0204B2B8       GFL_G2DIOReadBGNCGRArc
 0000:0204B2E0       GFL_G2DIOReadOBJNCGR
 0000:0204B308       GFL_G2DIOReadOBJNCGRArc
 0000:0204B330       GFL_G2DIOReadNSCR
 0000:0204B358       GFL_G2DIOReadNSCRArc
 0000:0204B380       GFL_G2DIOReadNCLR
 0000:0204B3A8       GFL_G2DIOReadNCLRArc
 0000:0204B3D0       GFL_G2DIOReadNCER
 0000:0204B3F8       GFL_G2DIOReadNCERArc
 0000:0204B420       GFL_G2DIOReadNANR
 0000:0204B448       GFL_G2DIOReadNANRArc
 0000:0204B470       GFL_G2DIOReadNMCR
 0000:0204B498       GFL_G2DIOReadNMCRArc
 0000:0204B4C0       GFL_G2DIOReadNMAR
 0000:0204B4E8       GFL_G2DIOReadNMARArc
 0000:0204B510       GFL_ArcSysReadHeapNewLZ
 0000:0204B59C       GFL_ArcSysReadHeapNewLZGetLen
 0000:0204B62C       GFL_ArcToolReadHeapNewLZ
 0000:0204B63C       GFL_ArcToolReadHeapNewLZGetLen
 0000:0204B6D4       ClActSys_Create
 0000:0204B784       ClActSys_Free
 0000:0204B7C0       ClActSys_Draw
 0000:0204B848       ClActSys_LoadNCGR
 0000:0204B9B8       ClActSys_FreeNCGR
 0000:0204BBCC       ClActSys_LoadNCLRNoOffset
 0000:0204BBE4       ClActSys_LoadNCLR
 0000:0204BC74       ClActSys_LoadNCLRSimple
 0000:0204BCFC       ClActSys_FreeNCLR
 0000:0204BE0C       ClActSys_LoadNCERAndNANR
 0000:0204BE90       ClActSys_FreeNCERAndNANR
 0000:0204BF48       ClActSys_AddClActWork
 0000:0204BFC4       ClActSys_Remove
 0000:0204C06C       ClActSys_CreateObj
 0000:0204C0D0       ClActSys_CreateMulticellObj
 0000:0204C134       ClActObj_ClearOAM
 0000:0204C54C       ClActObj_SetAnimEnable
 0000:0204C704       ClAct_AddCellActList
 0000:0204C750       ClAct_DeleteCellActList
 0000:0204CC78       v1
 0000:0204CE20       pTaskRegisterFunc
 0000:0204D06C       ClActObj_Init
 0000:0204D0C0       ClActObj_CopyOAMTemplateData
 0000:0204D164       ClAct_SetupObj
 0000:0204D1A8       ClAct_SetupMulticellObj
 0000:0204D3B8       setSeqToMultiCellAnim
 0000:0204D6B8       ClActVRAMManager_Init
 0000:0204DCD0       GFL_TextPrintInit
 0000:0204DD00       GFL_TextPrintDrawIndices
 0000:0204DE00       GFL_TextPrintDrawString
 0000:0204DE3C       GFL_TextPrintStringToIndices
 0000:0204DE94       GFL_TextPrintASCIIToIndex
 0000:0204DF0C       GFL_TextPrintSJISToIndex
 0000:0204DFD0       GFL_FadeCreate
 0000:0204E000       GFL_FadeUpdate
 0000:0204E064       GFL_FadeGetUpdateFreq
 0000:0204E070       GFL_FadeSetUpdateFreq
 0000:0204E07C       GFL_FadeSetUpdateFreqOne
 0000:0204E08C       GFL_FadeSet
 0000:0204E10C       GFL_FadeIsRunning
 0000:0204E124       GFL_FadeFlush
 0000:0204E188       GFL_G3DDual3DInit
 0000:0204E1BC       GFL_G3DDual3DInitOAM
 0000:0204E26C       GFL_G3DDual3DFree
 0000:0204E28C       GFL_G3DDual3DGetRenderDisp
 0000:0204E298       GFL_G3DDual3DRaiseNeedRenderFlag
 0000:0204E2A8       GFL_G3DDual3DExecVBlank
 0000:0204E2EC       GFL_G3DDual3DSetupTopScreen
 0000:0204E360       GFL_G3DDual3DSetupBottomScreen
 0000:0204E3BC       BlActScene_Create
 0000:0204E498       BlActScene_SetCustomNormal
 0000:0204E4B4       BlActScene_SetScale
 0000:0204E4C4       BlActScene_SetColDiffuse
 0000:0204E4CC       BlActScene_SetColAmbient
 0000:0204E4D4       BlActScene_SetColSpecular
 0000:0204E4DC       BlActScene_SetColEmissive
 0000:0204E4E4       BlActScene_SetBasePolyID
 0000:0204E4EC       BlActScene_SetGeomOrigin
 0000:0204E4F4       BlActScene_SetTexcoordOffset
 0000:0204E524       BlActScene_GetAvailMatSlotIdx
 0000:0204E55C       BlActMaterial_BindTexture
 0000:0204E598       BlActMaterial_Set
 0000:0204E5F8       BlActScene_AddMaterialNewTex
 0000:0204E690       BlActScene_AddMaterialExistTex
 0000:0204E710       BlActScene_TrimMatTex
 0000:0204E738       BlActScene_FreeMaterial
 0000:0204E8F8       BlActScene_AddNewActor
 0000:0204E9FC       BlActScene_ClearActorMaterial
 0000:0204EA54       BlActScene_SetActorPos
 0000:0204EAF4       BlActScene_SetActorHidden
 0000:0204EB24       BlActScene_EnableActorLight
 0000:0204EB4C       BlActScene_DisableActorLight
 0000:0204EBDC       BlActScene_Draw
 0000:0204F124       BlActSys_Create
 0000:0204F1FC       BlActSys_Free
 0000:0204F250       BlActSys_GetScene
 0000:0204F270       BlActHandle_Reset
 0000:0204F290       BlActSys_ExecMatLoadRequests
 0000:0204F36C       BlActSys_FreeMaterials
 0000:0204F3F0       BlActSys_ExecActorRequests
 0000:0204F4AC       BlActSys_DeleteActors
 0000:0204F4F8       BlActSys_UpdateActors
 0000:0204F684       BlActSys_Draw
 0000:0204F6C4       BlActSys_SetActorLight
 0000:0204F788       BlActSys_GetMatByActor
 0000:0204F944       ParticleSys_Init
 0000:0204F9AC       Particle_Create
 0000:0204FAB0       Particle_Free
 0000:0204FB78       ParticleSys_Free
 0000:0204FE24       j_GFL_ArcSysReadHeapNew
 0000:02050010       pDest
 0000:02050028       ParticleSys_GetCount
 0000:020501A0       param3
 0000:0205063C       MAT2_SetScaleRot
 0000:020507B0       vecfx_mul
 0000:020507D8       vecfx_div
 0000:02050800       MAT3_RotationEulerZYX
 0000:02050870       MAT3_RotationDir
 0000:02051688       def_2051648
 0000:0205174C       def_205170C
 0000:020522D0       nullsub_71
 0000:02054F44       num1
 0000:02055748       def_205503C
 0000:02056B6C       src
 0000:02056D0C       poly
 0000:02056F58       dest
 0000:020584A4       def_2058400
 0000:02059894       def_2059814
 0000:02059F1C       def_2059D84
 0000:0205AF4C       def_205AEA8
 0000:0205B054       def_205AFE8
 0000:0205B758       def_205B720
 0000:0205C1D4       def_205BF5C
 0000:0205C3A0       def_205C2EC
 0000:0205CFE4       src2
 0000:0205D6F0       def_205D64C
 0000:0205DEFC       def_205DE64
 0000:0205EBD8       SetHeapBaseInfo
 0000:0205EC30       list
 0000:0205EC44       GetExistingExpHeapHeaderBounds
 0000:0205EC60       UnlinkExpHeapHeader
 0000:0205EC7C       AppendHeaderToExpHeapLL
 0000:0205EC9C       SetupExpHeapHeader
 0000:0205ECB8       InitHeapBaseEXPH
 0000:0205ED00       signature
 0000:0205ED08       AllocExpHeapCore
 0000:0205EE08       AllocExpHeapHead
 0000:0205EE84       AllocExpHeapTail
 0000:0205EEF8       ExpHeap_MarkFreeBounds
 0000:0205EF84       InitHeapBaseSafe
 0000:0205EFAC       AllocOnHeapBase
 0000:0205EFCC       ExpHeap_ResizeBlock
 0000:0205F0B4       FreeFromHeapBase
 0000:0205F0E0       HeapBase_GetFreeSize
 0000:0205F0F8       HeapBase_GetHighestAllocatableSize
 0000:0205F170       HeapBase_DumpMemory
 0000:0205F190       HeapBlock_GetSize
 0000:0205F1A8       InitHeapBaseFRMH
 0000:0205F390       ExpHeapAllocator_Malloc
 0000:0205F3E0       SystemHeapAllocator_Malloc
 0000:0205F400       AllocatorBase_Malloc
 0000:0205F418       CreateExpHeapAllocator
 0000:0205F754       gfxUploadQueueGetNextIndex
 0000:0205F768       gfxUploadQueueIsFull
 0000:0205F778       gfxUploadQueueIsEmpty
 0000:0205F788       gfxUploadFunc_Tex3D
 0000:0205F7A4       gfxUploadFunc_Plt3D
 0000:0205F7C0       gfxUploadFunc_RearPlaneImageA
 0000:0205F7D8       gfxUploadFunc_RearPlaneImageB
 0000:0205F7F0       gfxUploadFunc_BGChar0A
 0000:0205F7F8       gfxUploadFunc_BGChar1A
 0000:0205F800       gfxUploadFunc_BGChar2A
 0000:0205F808       gfxUploadFunc_BGChar3A
 0000:0205F810       gfxUploadFunc_BGScreen0A
 0000:0205F818       gfxUploadFunc_BGScreen1A
 0000:0205F820       gfxUploadFunc_BGScreen2A
 0000:0205F828       gfxUploadFunc_BGScreen3A
 0000:0205F830       gfxUploadFunc_BGScreen2AExt
 0000:0205F838       gfxUploadFunc_BGScreen3AExt
 0000:0205F840       gfxUploadFunc_StdPltObjA
 0000:0205F848       gfxUploadFunc_StdPltBGA
 0000:0205F850       gfxUploadFunc_ExtPltObjA
 0000:0205F86C       gfxUploadFunc_ExtPltBGA
 0000:0205F888       gfxUploadFunc_OAMA
 0000:0205F890       gfxUploadFunc_ObjCharA
 0000:0205F898       gfxUploadFunc_BGChar0B
 0000:0205F8A0       gfxUploadFunc_BGChar1B
 0000:0205F8A8       gfxUploadFunc_BGChar2B
 0000:0205F8B0       gfxUploadFunc_BGChar3B
 0000:0205F8B8       gfxUploadFunc_BGScreen0B
 0000:0205F8C0       gfxUploadFunc_BGScreen1B
 0000:0205F8C8       gfxUploadFunc_BGScreen2B
 0000:0205F8D0       gfxUploadFunc_BGScreen3B
 0000:0205F8D8       gfxUploadFunc_BGScreen2BExt
 0000:0205F8E0       gfxUploadFunc_BGScreen3BExt
 0000:0205F8E8       gfxUploadFunc_StdPltObjB
 0000:0205F8F0       gfxUploadFunc_StdPltBGB
 0000:0205F8F8       gfxUploadFunc_ExtPltObjB
 0000:0205F914       gfxUploadFunc_ExtPltBGB
 0000:0205F930       gfxUploadFunc_OAMB
 0000:0205F938       gfxUploadFunc_ObjCharB
 0000:0205F940       gfxUpload
 0000:0205F964       gfxUploadQueueResetCore
 0000:0205F974       gfxNotifyUploadRequested
 0000:0205F998       gfxUploadQueueGetCurrentRequest
 0000:0205F9A4       gfxAllocUploadRequest
 0000:0205F9B0       gfxUploadQueueAdvance
 0000:0205F9D4       gfxUploadQueueBind
 0000:0205F9EC       gfxUploadQueueReset
 0000:0205F9FC       gfxExecUploadRequests
 0000:0205FA3C       gfxUploadAsync
 0000:0205FA7C       pQueue
 0000:0205FD94       pMan
 0000:0205FF18       pMgr
 0000:0205FF20       ppBlockPoolList
 0000:02060074       magic
 0000:020602A4       NNS_G2DPrepareObjChar
 0000:020602CC       NNS_G2DRelocateObjChar
 0000:020602D4       NNS_G2DPrepareBGChar
 0000:020602FC       NNS_G2DRelocateBGChar
 0000:02060304       RelocatePaletteResGetDataPtr
 0000:0206035C       NNS_G2DRelocatePLTTHeader
 0000:02060364       NNS_G2DPrepareScreen
 0000:02060384       NNS_G2DFindDataBlock
 0000:02060D9C       jpt_2060D9A
 0000:02060DCC       def_2060D9A
 0000:02060DE8       jpt_2060DE6
 0000:02060E18       def_2060DE6
 0000:02060EA4       jpt_2060EA2
 0000:02060ED4       def_2060EA2
 0000:02060EF0       jpt_2060EEE
 0000:02060F20       def_2060EEE
 0000:020628FC       CellMatrixTranslate
 0000:02062994       CellMatrixScale
 0000:02062A34       jpt_2062A32
 0000:02062A48       def_2062A32
 0000:02062A64       CellMatrixRotate
 0000:02062AE6       jpt_2062AE4
 0000:02062AFA       def_2062AE4
 0000:02062B24       MAT32_Mul
 0000:02063AA0       jpt_2063A9E
 0000:02063ABA       def_2063A9E
 0000:02064724       pDrawGlyph
 0000:02064FB8       NNS_G3DAnimationCalcAllocSize
 0000:02064FF0       NNS_G3DAnimationCreate
 0000:02065054       NNS_G3DModelAttachResource
 0000:02065088       NNS_G3DAnimationLink
 0000:020650F4       NNS_G3DAnimationRegistTargets
 0000:02065138       NNS_G3DAnimationBind
 0000:02065208       NNS_G3DResTexGetTexDataSize
 0000:02065228       NNS_G3DResTexSetGfdKeys
 0000:02065238       NNS_G3DResTexUploadTex
 0000:020652E4       NNS_G3DResTexGetPaletteDataSize
 0000:020652F4       NNS_G3DResTexSetPltGfdKey
 0000:020652F8       NNS_G3DResTexUploadPlt
 0000:020656C4       NNS_G3DRenderStateInit
 0000:020657B8       NNS_G3DFlushRenderState
 0000:020657E0       NNS_G3DFlushViewProjection
 0000:02065820       opcode
 0000:02065824       args
 0000:02065834       NNS_G3DFlushModelViewProjection
 0000:020658D0       NNS_G3DRenderTranslationSet
 0000:020658F4       NNS_G3DRenderScaleSet
 0000:02065918       NNS_G3DSetLightVector
 0000:02065948       NNS_G3DSetLightColor
 0000:02065958       NNS_G3DSetMatDifAmb
 0000:02065978       NNS_G3DSetMatSpeEmi
 0000:02065998       NNS_G3DGetInvViewMatrix
 0000:02065B6C       NNS_G3DPrecalcTempMVMatrix
 0000:02065B94       a
 0000:02065BA8       NNS_G3DGetTempMVMatrix
 0000:02065BD0       NNS_G3DGetTempInvMVMatrix
 0000:02065C38       ab
 0000:02065C3C       NNS_G3DGetViewport
 0000:02066170       NNS_G3DRenderCodeExec
 0000:020661A4       NNS_G3DDrawCore
 0000:0206632C       NNS_G3DDraw
 0000:020663BC       NNS_G3DRenderFuncNop
 0000:020663D0       NNS_G3DRenderFuncReturn
 0000:020663E8       NNS_G3DRenderFuncSetVisGroup
 0000:020664FC       NNS_G3DRenderFuncLoadMatrix
 0000:02066584       NNS_G3DRenderFuncApplyMaterialDefault
 0000:020668A4       NNS_G3DRenderFuncApplyMaterial
 0000:02066918       NNS_G3DRenderFuncDrawMeshDefault
 0000:020669A8       NNS_G3DRenderFuncDrawMesh
 0000:02066A10       NNS_G3DRenderFuncApplyJointMatrix
 0000:02066D44       NNS_G3DRenderFuncSetBillboardMatrix1
 0000:02066F50       NNS_G3DRenderFuncSetBillboardMatrix2
 0000:020671B0       NNS_G3DRenderFuncApplySmoSkMatrix
 0000:020675F0       NNS_G3DRenderFuncExecFIFOQueue
 0000:0206768C       NNS_G3DRenderFuncGlobalScale
 0000:020676D8       NNS_G3DRenderFuncApplySphereMap
 0000:02067918       NNS_G3DRenderFuncApplyProjectionMap
 0000:02067BC8       NNS_G3DWaitFIFO
 0000:02067C18       NNS_G3DExecDisplayList
 0000:02067D20       arg
 0000:02067D48       NNS_G3DExecOp
 0000:02067DD0       NNS_G3DGetTransforms
 0000:02067E24       NNS_G3DInit
 0000:02067E48       NNS_G3DProject
 0000:02067FC8       m
 0000:020681CC       NNS_G3DAnimationAlloc
 0000:020681EC       NNS_G3DResMdlSetMatLights
 0000:02068238       NNS_G3DResMdlSetMatShadingMode
 0000:02068284       NNS_G3DResMdlSetMatFaceCulling
 0000:020682D0       NNS_G3DResMdlSetMatPolyID
 0000:02068320       NNS_G3DResMdlSetMatAlpha
 0000:02068484       NNS_G3DFind
 0000:020685A0       NNS_G3DFindIndex
 0000:02068688       NNS_G3DResGetMdlBlock
 0000:02068690       NNS_G3DResGetTexBlock
 0000:020686B8       NNS_G3DResGetAnm
 0000:020687DC       NNS_G3DAnimationApply_CA
 0000:02069C90       NNS_G3DAnimationInit_TA
 0000:02069D54       NNS_G3DAnimationInit_TP
 0000:0206B900       sndInit
 0000:0206B95C       sndSync
 0000:0206BA30       nBytes
 0000:0206BA34       info
 0000:0206BAA0       sndEnableChannels
 0000:0206BACC       sndDisableChannels
 0000:0206BB48       sndLockChannel
 0000:0206BB74       sndReleaseChannel
 0000:0206BB84       sndPlaySamples
 0000:0206BC48       sndStopChannel
 0000:0206BC68       sndSetChannelVolume
 0000:0206BC80       sndSetChannelSpeed
 0000:0206BCD8       sndIsChannelPlaying
 0000:0206C050       object
 0000:0206C168       volume
 0000:0206D03C       NNS_FrmHeapCreate
 0000:0206D768       buffer
 0000:0206DB6C       NNS_SndStreamInit
 0000:0206DC24       mutex
 0000:0206DC30       thread
 0000:0206DEB4       stream
 0000:0206E254       commandList
 0000:0206E2A4       NNS_SndStreamThreadInit
 0000:0206ECEC       NNS_SndStreamThreadProc
 0000:0206EDF4       handler
 0000:0206EE0C       cart_read_thread_init
 0000:0206EF0C       rom_get_header
 0000:0206F1B4       cart_read_thread_proc
 0000:0206F87C       task
 0000:0206FC90       p
 0000:020701CA       jpt_20701C8
 0000:02070384       def_20701C8
 0000:02070580       fs_call_syscmd
 0000:02070760       fs_normalize_path
 0000:02070938       fs_create
 0000:0207094C       fs_open
 0000:02070CA8       finit
 0000:02070CF4       fs_resolve_file
 0000:02070D40       fopen_raw
 0000:02070D64       romfs_fopen_id
 0000:02070D94       romfs_fopen_core
 0000:02070DE0       romfs_fclose
 0000:02070DEC       romfs_fgetsize
 0000:02070E20       romfs_ftell
 0000:02070E54       romfs_fseek
 0000:02070E6C       romfs_fread
 0000:02070ECC       romfs_fopen
 0000:02070ED8       GetFileSize
 0000:02070F30       sys_get_overlay_size
 0000:02070F44       sys_prepare_overlay_area
 0000:02070F6C       sys_get_overlay_file_id
 0000:02070F84       sys_read_overlay_header
 0000:02071084       sys_mount_overlay
 0000:02071168       sys_start_overlay
 0000:0207122C       sys_call_ovl_dtors
 0000:020712D0       sys_unmount_overlay
 0000:020712DC       sys_load_overlay
 0000:0207130C       sys_unload_overlay
 0000:020718D8       fs_call_filecmd
 0000:02071964       command
 0000:02071E50       fs_bind
 0000:02071E94       vtable
 0000:02072054       jpt_2072052
 0000:020720B2       def_2072052
 0000:020720B8       fmt
 0000:02072130       proc
 0000:02072134       extfs_fopen
 0000:0207218C       str2
 0000:020721E8       jpt_20721E6
 0000:02072236       def_20721E6
 0000:02072258       arg_8
 0000:0207225C       arg_C
 0000:02072264       fs_init_core
 0000:02072330       name
 0000:02072338       flags
 0000:0207233C       read_func
 0000:02072348       write_func
 0000:0207234C       path
 0000:02072350       fs_set_dma_id
 0000:02072398       romfs_fopen_raw
 0000:020723B4       file_index
 0000:020723BC       fs_init
 0000:020723D8       fs_init_check
 0000:020723E4       MAT2_Identity
 0000:020723FC       MAT2_Scaling
 0000:02072408       MAT2_Rotation
 0000:02072414       MAT2_Scale
 0000:02072478       MAT3_Identity
 0000:0207249C       MAT3_To4x4
 0000:020724D8       MAT3_Scaling
 0000:020724EC       MAT3_Scale
 0000:020725B4       MAT3_RotationX
 0000:020725D0       MAT3_RotationY
 0000:020725EC       MAT3_RotationZ
 0000:02072604       MAT3_RotationAxisAngle
 0000:02072758       MAT3_Invert
 0000:02072A3C       MAT3_Mul
 0000:02072BD0       MAT3_MulVec
 0000:02072C4C       MAT43_Identity
 0000:02072C74       MAT43_To4x4
 0000:02072CA8       MAT43_Scaling
 0000:02072CC0       MAT43_Scale
 0000:02072CF4       MAT43_RotationY
 0000:02072D10       MAT43_RotationAxisAngle
 0000:02072D30       MAT43_Invert
 0000:020730A4       MAT43_Mul
 0000:020732BC       MAT43_MulVec
 0000:02073354       MAT43_LookAt
 0000:02073468       MAT4_Identity
 0000:02073494       MAT4_To4x3
 0000:020734C8       MAT4_Mul
 0000:02073884       MAT4_SetFrustum
 0000:02073ABC       MAT4_SetPerspective
 0000:02073C08       MAT4_SetOrtho
 0000:02073E1C       fx_div
 0000:02073E28       fx_recip
 0000:02073E34       fx_recip_raw
 0000:02073E54       fx_sqrt
 0000:02073E78       fx_invSqrt
 0000:02073EBC       div_get_result
 0000:02073ED4       fx_div_get_result
 0000:02073F00       fx_recip_req
 0000:02073F24       fx_sqrt_req
 0000:02073F4C       fx_sqrt_get_result
 0000:02073F6C       fx_div_req
 0000:02073F90       div32
 0000:02073FB8       mod32
 0000:02073FE0       vecfx_add
 0000:02074000       vecfx_sub
 0000:02074020       vecfx_add16
 0000:02074044       vecfx_dot
 0000:02074080       vecfx_dot16
 0000:020740C4       vecfx_cross
 0000:02074144       vecfx_cross16
 0000:020741AC       vecfx_length
 0000:0207420C       vecfx_length16
 0000:02074280       vecfx_normalize
 0000:02074394       vecfx_normalize16
 0000:020744C0       vecfx_muladd
 0000:02074518       vecfx_dist
 0000:02074594       fx_atan2
 0000:02074688       fx_mul_round
 0000:020746C0       fx_fract
 0000:020746EC       fx_acos
 0000:02074744       gfxInit
 0000:02074830       pSrc
 0000:0207484C       gfxSetVCountIntrLine
 0000:02074870       gfxSetHBlankIRQEnabled
 0000:02074898       gfxSetVBlankIRQEnabled
 0000:020748C0       gfxEngineIsEnabledA
 0000:020748CC       gfxEngineDisableA
 0000:02074900       gfxEngineEnableA
 0000:0207493C       gfxSetEngineModeA
 0000:02074988       gfxSetBGModeB
 0000:0207499C       GFXRegSetMasterBrightness
 0000:020749C0       gfxRegGetMasterBrightness
 0000:020749F8       gfxRegSetBGTransform
 0000:02074A98       gfxRegSetAlphaBlend
 0000:02074AB4       gfxRegSetBrightnessBlend
 0000:02074AD0       gfxRegSetBlend
 0000:02074B04       gfxRegAdjustBrightnessBlend
 0000:02074B40       gfxPerspective
 0000:02074B74       gfxOrtho
 0000:02074BAC       gfxLookAt
 0000:02074BD8       gfxRotateX
 0000:02074BFC       gfxRotateY
 0000:02074C20       gfxRotateZ
 0000:02074C40       gfxLoadMatrix4x4
 0000:02074C54       gfxLoadMatrix4x3
 0000:02074C68       gfxMultMatrix4x4
 0000:02074C7C       gfxMultMatrix4x3
 0000:02074C90       gfxMultMatrix3x3
 0000:02074CA4       gfxMultTransRot4x3
 0000:02074CC8       gfxInit3D
 0000:02074D80       gfxReset3D
 0000:02074DCC       gfxResetFIFO
 0000:02074DEC       gfxResetMatrixStack
 0000:02074E50       gfxResetMatrixStackKeepProjection
 0000:02074EA4       gfxSetFog
 0000:02074EE8       gfxGetClipMatrix
 0000:02074F0C       gfxGetNormalMatrix
 0000:02074F30       gfxSetEdgeColorTable
 0000:02074F40       gfxSetFogTable
 0000:02074F50       gfxClearColor
 0000:02074F74       gfxResetLUTs
 0000:0207501C       gfxGetWorldMatrixStackLevel
 0000:02075040       gfxGetProjectionMatrixStackLevel
 0000:02075064       gfxSet1DotDepth
 0000:02075078       gfxGetBoxTestResult
 0000:02075098       gfxClearFIFO
 0000:0207512C       gfxGetScreenAddrBG0A
 0000:02075158       gfxGetScreenAddrBG0B
 0000:02075174       gfxGetScreenAddrBG1A
 0000:020751A0       gfxGetScreenAddrBG1B
 0000:020751BC       gfxGetScreenAddrBG2A
 0000:02075238       def_20751E8
 0000:02075240       gfxGetScreenAddrBG2B
 0000:02075264       jpt_2075262
 0000:0207529A       def_2075262
 0000:020752A4       gfxGetScreenAddrBG3A
 0000:02075320       def_20752D0
 0000:02075328       gfxGetScreenAddrBG3B
 0000:0207534C       jpt_207534A
 0000:02075382       def_207534A
 0000:0207538C       gfxGetCharAddrBG0A
 0000:020753B4       gfxGetCharAddrBG0B
 0000:020753CC       gfxGetCharAddrBG1A
 0000:020753F4       gfxGetCharAddrBG1B
 0000:0207540C       gfxGetCharAddrBG2A
 0000:02075448       gfxGetCharAddrBG2B
 0000:02075474       gfxGetCharAddrBG3A
 0000:020754B4       gfxGetCharAddrBG3B
 0000:020754E4       gfxUploadStdPaletteBGA
 0000:02075550       ndma_copy
 0000:02075554       __32ndma_copy
 0000:02075560       gfxUploadStdPaletteBGB
 0000:020755CC       gfxUploadStdPaletteObjA
 0000:02075638       gfxUploadStdPaletteObjB
 0000:020756A4       gfxUploadOAMA
 0000:020756F8       gfxUploadOAMB
 0000:02075748       gfxUploadObjCharA
 0000:02075794       gfxUploadObjCharB
 0000:020757E0       gfxUploadBGScreen0A
 0000:02075854       gfxUploadBGScreen0B
 0000:020758C8       gfxUploadBGScreen1A
 0000:0207593C       gfxUploadBGScreen1B
 0000:020759B0       gfxUploadBGScreen2A
 0000:02075A24       gfxUploadBGScreen2B
 0000:02075A98       gfxUploadBGScreen3A
 0000:02075B0C       gfxUploadBGScreen3B
 0000:02075B80       gfxUploadBGChar0A
 0000:02075BD8       gfxUploadBGChar0B
 0000:02075C30       gfxUploadBGChar1A
 0000:02075C88       gfxUploadBGChar1B
 0000:02075CE0       gfxUploadBGChar2A
 0000:02075D38       gfxUploadBGChar2B
 0000:02075D90       gfxUploadBGChar3A
 0000:02075DE8       gfxUploadBGChar3B
 0000:02075E40       gfxBeginBGExtPltAUpload
 0000:02075EA0       gfxUploadExtPaletteBGA
 0000:02075F04       ndma_copyEx
 0000:02075F08       __32ndma_copyEx
 0000:02075F14       gfxEndBGExtPltAUpload
 0000:02075F5C       gfxBeginObjExtPltAUpload
 0000:02075F8C       gfxUploadExtPaletteObjA
 0000:02075FEC       gfxEndObjExtPltAUpload
 0000:02076024       gfxBeginBGExtPltBUpload
 0000:02076034       gfxUploadExtPaletteBGB
 0000:02076090       gfxEndBGExtPltBUpload
 0000:020760C4       gfxBeginObjExtPltBUpload
 0000:020760D4       gfxUploadExtPaletteObjB
 0000:02076130       gfxEndObjExtPltBUpload
 0000:02076164       gfxBeginTextureUpload
 0000:0207619C       gfxUploadTexture
 0000:020762A4       gfxEndTextureUpload
 0000:020762E0       gfxBeginPaletteUpload
 0000:02076300       gfxUploadPalette
 0000:02076360       gfxEndPaletteUpload
 0000:02076398       gfxBeginRearPlaneImageUpload
 0000:020763B2       jpt_20763B0
 0000:020763E4       def_20763B0
 0000:020763F8       gfxUploadRearPlaneImageA
 0000:02076450       gfxUploadRearPlaneImageB
 0000:020764B0       gfxEndRearPlaneImageUpload
 0000:020764E8       gfxSetLCDCBanksCore
 0000:0207657C       gfxSetBGBanksA
 0000:020765A6       jpt_20765A4
 0000:020765E8       def_20765A4
 0000:020766CC       gfxSetObjBanksA
 0000:020766F6       jpt_20766F4
 0000:02076760       def_20766F4
 0000:02076784       gfxSetBGExtPltBanksA
 0000:02076820       gfxSetObjExtPltBanksA
 0000:0207688C       gfxSetTextureBanks
 0000:020768C8       jpt_20768C6
 0000:0207695C       def_20768C6
 0000:02076988       gfxSetPaletteBanks
 0000:02076A00       gfxSetRearPlaneImageBanks
 0000:02076A1E       jpt_2076A1C
 0000:02076A70       def_2076A1C
 0000:02076A98       gfxSetPlainARM7Banks
 0000:02076AF0       gfxSetLCDCBanks
 0000:02076B08       gfxSetBGBanksB
 0000:02076B64       gfxSetObjBanksB
 0000:02076BA8       gfxSetBGExtPltBanksB
 0000:02076BF8       gfxSetObjExtPltBanksB
 0000:02076C4C       gfxAcquireBanksForLCDC
 0000:02076C6C       gfxAcquireBGBanksA
 0000:02076C74       g3bit
 0000:02076C7C       gfxAcquireObjBanksA
 0000:02076C8C       gfxAcquireBGExtPltBanksA
 0000:02076CAC       gfxAcquireObjExtPltBanksA
 0000:02076CCC       gfxAcquireTextureBanks
 0000:02076CDC       gfxAcquirePaletteBanks
 0000:02076CEC       gfxAcquireRearPlaneImageBanks
 0000:02076CFC       gfxAcquireBGBanksB
 0000:02076D0C       gfxAcquireObjBanksB
 0000:02076D1C       gfxAcquireBGExtPltBanksB
 0000:02076D3C       gfxAcquireObjExtPltBanksB
 0000:02076D5C       gfxDisableQueuedBanks
 0000:02076E08       gfxDisableBGBanksA
 0000:02076E18       gfxDisableObjBanksA
 0000:02076E28       gfxDisableBGExtPltBanksA
 0000:02076E48       gfxDisableObjExtPltBanksA
 0000:02076E68       gfxDisableTextureBanks
 0000:02076E78       gfxDisablePaletteBanks
 0000:02076E88       gfxDisableRearPlaneImageBanks
 0000:02076E98       gfxDisablePlainARM7Banks
 0000:02076EA8       gfxDisableLCDCBanks
 0000:02076EB8       gfxDisableBGBanksB
 0000:02076EC8       gfxDisableObjBanksB
 0000:02076ED8       gfxDisableBGExtPltBanksB
 0000:02076EF8       gfxDisableObjExtPltBanksB
 0000:02076F18       gfxGetObjBanksA
 0000:02076F24       gfxGetObjExtPltBanksA
 0000:02076F30       gfxGetTextureBanks
 0000:02076F3C       gfxGetLCDCBanks
 0000:02076F48       gfxGetObjBanksB
 0000:02076F54       gfxGetObjExtPltBanksB
 0000:02076F60       gfxUploadMatrix4x3
 0000:02076F84       gfxUploadMatrix4x4
 0000:02076FA0       gfxInitVRAM
 0000:02076FD4       countLeadingZeros
 0000:02076FDC       countOneBits
 0000:02077014       md5_transform
 0000:02078058       dma_fill
 0000:020780AC       dma_copy
 0000:0207817C       dma_fillEx
 0000:0207821C       dma_copyEx
 0000:02078304       dma_end
 0000:02078354       dma_endAll
 0000:0207840C       dma_check_source_valid
 0000:0207856C       callback
 0000:02078650       sys_memset16
 0000:02078668       sys_memcpy16
 0000:02078684       sys_memset32
 0000:02078698       sys_memcpy32
 0000:020786B0       sys_memcpy_volatile
 0000:020786C8       sys_memset32_fast
 0000:02078714       sys_memcpy32_fast
 0000:0207874C       gfxUploadFogTable
 0000:02078768       MAT3_Copy
 0000:02078784       MAT43_Copy
 0000:020787A8       MAT4_Copy
 0000:020787D4       sys_memset
 0000:02078868       sys_memset_fast
 0000:0207894C       sys_memcpy
 0000:02078A7C       sys_memcmp
 0000:02078AAC       sys_memcpy_fast
 0000:02078D9C       sys_memcpy_ex
 0000:020790C0       memswap
 0000:020790C8       sys_uncomp_lz1x
 0000:020791F8       DMACNT
 0000:020792A4       alarm
 0000:02079408       queue
 0000:02079A0C       data
 0000:02079A28       spiHoldChipselect
 0000:02079BDC       irq_waitFor
 0000:02079D4C       CPU_SetIRQFunc
 0000:02079E10       irq_setDMACallback
 0000:02079E7C       CPU_SetInterrupts
 0000:02079E9C       CPU_EnableInterrupts
 0000:02079EC0       CPU_DisableInterrupts
 0000:02079EE4       CPU_AcknowledgeInterrupts
 0000:02079F6C       file
 0000:0207A1AC       lockp
 0000:0207A1B0       ctrlFuncp
 0000:0207A230       cart_mutex_get_status
 0000:0207A234       cart_key_create
 0000:0207A28C       cart_key_release
 0000:0207A320       scheduler_thread_list_append
 0000:0207A460       scheduler_switch_thread
 0000:0207A4D0       scheduler_init
 0000:0207A5B4       scheduler_init_thread
 0000:0207A67C       scheduler_thread_exit_proc
 0000:0207A694       scheduler_exit_thread
 0000:0207A6D0       scheduler_release_thread
 0000:0207A6F8       scheduler_release_thread_core
 0000:0207A854       scheduler_is_thread_ended
 0000:0207A864       scheduler_join_thread
 0000:0207A894       scheduler_yield
 0000:0207A910       scheduler_start_thread
 0000:0207AA98       num2
 0000:0207ACB8       hw_isDSi
 0000:0207B06C       cp15_invalidateDCAll
 0000:0207B0A0       cp15_invalidateDC
 0000:0207B0BC       cp15_cleanDC
 0000:0207B0D8       cp15_flushDC
 0000:0207B0FC       cp15_drainWriteBuffer
 0000:0207B108       cp15_invalidateICAll
 0000:0207B114       cp15_invalidateIC
 0000:0207B150       os_init
 0000:0207B2B0       address
 0000:0207B2C4       GetUserMemRegionEnd
 0000:0207B2D0       GetUserMemRegionStart
 0000:0207B2DC       GetUserMemRegionDefaultEnd
 0000:0207B2EE       jpt_207B2EC
 0000:0207B380       def_207B2EC
 0000:0207B3A0       GetUserMemRegionDefaultStart
 0000:0207B3B2       jpt_207B3B0
 0000:0207B414       def_207B3B0
 0000:0207B438       SetUserMemRegionEnd
 0000:0207B444       SetUserMemRegionStart
 0000:0207B450       mem_alloc_direct
 0000:0207B520       malloc_device
 0000:0207B5C4       free_device
 0000:0207B608       mem_init_alloc_area
 0000:0207B67C       mem_bind_range
 0000:0207B6E4       mem_bind_static_ram_alloc
 0000:0207B7DC       cp15_mmu_enable
 0000:0207B7EC       cp15_mmu_disable
 0000:0207B818       mprotect_region0
 0000:0207B898       SetMemoryProtectionRegion
 0000:0207B8C0       exceptions_init
 0000:0207B90C       NativeExceptionHandler
 0000:0207B980       AbortUndefExcHandler
 0000:0207B994       exceptions_log_regs
 0000:0207BA14       exceptions_call_abort_undef_callback
 0000:0207BAA8       clock_init
 0000:0207BAEC       clock_is_inited
 0000:0207BAF8       clock_irq
 0000:0207BB38       clock
 0000:0207C0FC       CPU_IRQEnable
 0000:0207C110       CPU_IRQDisable
 0000:0207C124       CPU_SetIRQMask
 0000:0207C13C       CPU_IRQFIQDisable
 0000:0207C150       CPU_SetIRQFIQMask
 0000:0207C168       CPU_GetIRQMask
 0000:0207C174       CPU_GetMode
 0000:0207C1B0       CPU_WaitIntrBit
 0000:0207C228       sys_get_boot_indicator
 0000:0207C234       sys_get_boot_indicator_ptr
 0000:0207C2C8       sys_reset
 0000:0207C64C       start
 0000:0207C7A0       sys_exit
 0000:0207C808       abort
 0000:0207C814       cp15_halt
 0000:0207CC58       param
 0000:0207CCC8       status
 0000:0207D508       sndSetRate
 0000:0207D520       sndSetVolume
 0000:0207D538       sndSetPan
 0000:0207D550       sndQueuePacket_PlaySamples
 0000:0207D5CC       sndSetMasterVolume
 0000:0207D674       sndQueuePacket
 0000:0207D760       work
 0000:0207D808       sndNewPacket
 0000:0207D868       sndQueuePacket_
 0000:0207D990       startAddr
 0000:0207D9DC       sndGetSentPacketCount
 0000:0207EFB0       swBuf
 0000:0207EFEC       cycle
 0000:0207F628       listp
 0000:0207F8D8       NNS_STD_StrLen
 0000:02080130       len
 0000:02080924       mq
 0000:02080928       msgArray
 0000:02082444       aidBitmap
 0000:02082670       dmaCntData
 0000:02082824       dsiJump_27696E9
 0000:0208283C       j_27696E9
 0000:02082840       dsi27696E9
 0000:0208286C       j_27696F5
 0000:02082870       dsi27696F5
 0000:02082898       j_27696F9
 0000:0208289C       dsi27696F9
 0000:020828D0       j_27698B4
 0000:020828D8       exit
 0000:020828F4       atexit
 0000:020829C0       nan
 0000:020829D8       __sys_alloc
 0000:020829F0       __sys_free
 0000:02082A08       __sys_pointer_size
 0000:02082A1C       malloc
 0000:02082A34       free
 0000:02082A48       realloc
 0000:02082AB8       calloc
 0000:02082AE8       __flush_line_buffered_output_files
 0000:02082B70       __flush_all
 0000:02082BD4       abs
 0000:02082BE0       __convert_from_newlines
 0000:02082BE4       __convert_to_newlines
 0000:02082BE8       __prep_buffer
 0000:02082C10       __load_buffer
 0000:02082C9C       __flush_buffer
 0000:02082D20       setvbuf
 0000:02082E20       fread
 0000:02083134       fclose
 0000:020831A8       fflush
 0000:0208328C       __msl_strnicmp
 0000:02083308       _ftell
 0000:02083384       ftell
 0000:02083490       _fseek
 0000:02083650       fseek
 0000:0208376C       rewind
 0000:02083790       __msl_generic_count_bits64
 0000:02083824       __signbitd
 0000:02083840       __fpclassifyd
 0000:020838B0       __mbtowc_noconv
 0000:020838E8       __wctomb_noconv
 0000:020838FC       wctomb
 0000:02083918       wcstombs
 0000:02083990       memcpy
 0000:020839B0       memmove
 0000:020839FC       memset
 0000:02083A10       memchr
 0000:02083A3C       memcmp
 0000:02083A7C       __fill_mem
 0000:02083B28       parse_format
 0000:02084010       def_2083E68
 0000:02084034       long2str
 0000:02084284       longlong2str
 0000:02084558       double2hex
 0000:02084A04       round_decimal
 0000:02084B18       float2str
 0000:02085228       __pformatter
 0000:02085344       def_2085314
 0000:02085AAC       def_2085820
 0000:02085ACC       pwcs
 0000:02085AD4       __StringWrite
 0000:02085B18       vsnprintf
 0000:02085B78       WriteProc
 0000:02085B7C       sprintf
 0000:02085BA8       qsort
 0000:02085CE0       rand
 0000:02085D14       srand
 0000:02085D24       __StringRead
 0000:02085D9C       nothing
 0000:02085DC4       nullsub_12
 0000:02085DC8       strlen
 0000:02085DE4       strcpy
 0000:02085EAC       strncpy
 0000:02085EFC       strcat
 0000:02085F2C       strcmp
 0000:02086040       strncmp
 0000:02086074       strchr
 0000:020860AC       strspn
 0000:0208616C       strstr
 0000:020861D8       __strtold
 0000:020870DC       MAX_SHRT
 0000:020870F0       strtod
 0000:02087170       ReadProc
 0000:02087178       atod
 0000:02087188       __strtoul
 0000:020874F8       strtoul
 0000:0208758C       strtol
 0000:02087650       __strtoull
 0000:02087A44       strtoll
 0000:02087B2C       atol
 0000:02087B40       atoll
 0000:02087B54       fwide
 0000:02087BC4       wcslen
 0000:02087BE0       wcscpy
 0000:02087C00       __must_round
 0000:02087C6C       __dorounddecup
 0000:02087CBC       __rounddec
 0000:02087CFC       __ull2dec
 0000:02087DC0       __timesdec
 0000:02087F40       __str2dec
 0000:02087FDC       __two_exp
 0000:02088268       def_2088014
 0000:02088308       s
 0000:0208835C       __equals_dec
 0000:0208843C       __less_dec
 0000:0208851C       __minus_dec
 0000:020887BC       __num2dec_internal
 0000:0208893C       __num2dec
 0000:020889E8       __dec2num
 0000:02088FDC       scalbn
 0000:02089008       __ieee754_pow
 0000:020895A4       num
 0000:0208A190       __ieee754_rem_pio2
 0000:0208A86C       ipio2
 0000:0208A870       __kernel_cos
 0000:0208AB88       __kernel_rem_pio2
 0000:0208B708       def_208B3B0
 0000:0208B738       __kernel_sin
 0000:0208B9B4       copysign
 0000:0208B9DC       cos
 0000:0208BB50       floatAbs
 0000:0208BB70       floor
 0000:0208BD34       frexp
 0000:0208BDF4       ldexp
 0000:0208C040       x
 0000:0208C054       sin
 0000:0208C1CC       pow
 0000:0208C1D8       stricmp
 0000:0208C238       strnicmp
 0000:0208C244       strcmpi
 0000:0208C250       __aeabi_dadd
 0000:0208C568       doubleRevSub
 0000:0208C580       doubleSub
 0000:0208C934       __aeabi_dmul
 0000:0208CC98       __aeabi_d2f
 0000:0208CD9C       __aeabi_i2d
 0000:0208CDDC       __aeabi_ui2d
 0000:0208CE18       __aeabi_dcmpge
 0000:0208CEB0       __aeabi_dcmpgt
 0000:0208CF48       __aeabi_dcmple
 0000:0208CFEC       __aeabi_dcmplt
 0000:0208D088       __aeabi_dcmpeq
 0000:0208D114       doubleIsNotEqual
 0000:0208D1A0       floatCmpGE
 0000:0208D1FC       __aeabi_cfcmpeq
 0000:0208D258       floatCmpLE
 0000:0208D2C0       __aeabi_cfcmple
 0000:0208D31C       __aeabi_f2d
 0000:0208D3A0       __aeabi_i2f
 0000:0208D3E8       __aeabi_ui2f
 0000:0208D430       mod64Signed
 0000:0208D440       __aeabi_ldivmod
 0000:0208D5F0       __aeabi_uldivmod
 0000:0208D5FC       mod64Unsigned
 0000:0208D604       __aeabi_uldivmod_impl
 0000:0208D638       __aeabi_lmul
 0000:0208D658       __aeabi_llsl
 0000:0208D688       __aeabi_idiv
 0000:0208D894       __aeabi_uidivmod
 0000:0208D89C       __aeabi_uidivmod_impl
 0000:0208DA78       __aeabi_f2iz
 0000:0208DAAC       __aeabi_f2uiz
 0000:0208DAEC       __aeabi_d2iz
 0000:0208DB38       __aeabi_d2ulz
 0000:0208DBC4       sqrt
 0000:0208DD60       __aeabi_fmul
 0000:0208DF40       __aeabi_fadd
 0000:0208E164       __aeabi_frsub
 0000:0208E170       __aeabi_fsub
 0000:0208E3E8       floatRevDiv
 0000:0208E3F4       __aeabi_fdiv
 0000:0208E7AC       doubleRevDiv
 0000:0208E7C4       __aeabi_ddiv
 0000:0208ED08       nullsub_10
 0000:0208ED0C       __register_atexit
 0000:0208ED58       __TRK_write_console
 0000:0208ED5C       WriteUARTN
 0000:0208ED60       ReadUARTN
 0000:0208ED68       __read_console
 0000:0208EDB8       __write_console
 0000:0208EDFC       __close_console
 0000:0208EE04       boot_CallStaticInit
 0000:0208EE34       __register_global_object
 0001:0208EE84       HEAP_SETUP_TWL
 0001:0208EE94       HEAP_SETUP_NTR
 0001:0208EEA4       POKE_VOICE_DEFAULT_CHANNEL_LIST
 0001:0208EEB0       POKE_VOICE_EXTRA_ENTRIES
 0001:0208EED4       sv_extra_init
 0001:0208EF7C       save_block_data
 0001:0208EF94       sv_extra_blk_data
 0001:0208F18C       SAVEDATA_INIT
 0001:0208F4F8       dna_splicer_item_idxs
 0001:0208F4FC       ITEM_CATEGORIES
 0001:0208F7CC       nines
 0001:0208F838       UNOVA_DEX_COMPLETION_EXCLUSIONS
 0001:0208F870       NATIONAL_DEX_COMPLETION_EXCLUSIONS
 0001:0208F948       pokemonFormList
 0001:0208F9B0       slot_type
 0001:0208FA24       UNOVA_LINK_CITY_KEYS
 0001:0208FA2C       UNOVA_LINK_DIFFICULTY_KEYS
 0001:0208FA58       keyArray
 0001:0208FAEC       SURVEY_ANSWER_MSGID_COUNTS
 0001:0208FB84       SURVEY_ANSWER_MSGIDS
 0001:0208FDE4       FATAL_ERROR_G2D_RESIDS
 0001:0208FE4C       PASSPOWER_EXPLORING_CHANCES
 0001:0208FE58       PASSPOWER_HOLLOW_CHANCES
 0001:0208FFA8       game_version
 0001:0208FFAC       region
 0001:0208FFB0       LIGHT_CHANGE_HOURS
 0001:0208FFC4       day_part
 0001:0209003C       GAMESYSTEM_PROC_FUNCTIONS
 0001:02090048       DIRECTION_TO_3D_ANGLE
 0001:02090094       DIFFICULTY_ADJUST_PARTIES
 0001:0209009C       ABYSSAL_RUINS_ZONES_INSIDE
 0001:020900A4       BC_WF_LOBBY_ZONES
 0001:020900AC       NIMBASA_STADIUM_ZONES
 0001:020900B6       ABYSSAL_RUINS_ZONES
 0001:020900D8       ZONE_CAMERA_ASSIGNMENTS
 0001:020900FC       ZONES_WITH_RAILS
 0001:02090114       ZONE_RAIL_ASSIGNMENTS
 0001:0209014C       DIR_TO_RAIL_DIR
 0001:02090384       hpTypes
 0001:02090394       ROTOM_MOVES
 0001:020903A0       stat_nature_adjust
 0001:02090420       natureStat
 0001:020904A0       blockShufLUT
 0001:0209052E       national_legendaries
 0001:02090569       happiness_add
 0001:0209086C       v_GFLFontInitSub
 0001:02090874       v_GFLFontFreeSub
 0001:0209087C       BIT_COUNT_TO_BIT_MASK
 0001:02090888       ascii_0_9_Q
 0001:020908CA       mono_0_9_Q
 0001:02090968       tenExponents
 0001:02090994       Aaaaaa
 0001:0209099B       Ceeeeiiiidnooooo
 0001:020909AC       Ouuuuyysaaaaaa
 0001:020909BB       Ceeeeiiiidnooooo_0
 0001:020909D4       SPECIAL_COMPRESSED_CHAR_TABLE
 0001:02090A38       SYSTEM_MSGBOX_DATIDS_CHAR
 0001:02090A3A       SYSTEM_MSGBOX_DATIDS_PALETTE
 0001:02090A3C       pixelData
 0001:02090A5C       MAIL_ITEM_IDS
 0001:02090B14       MONS_BALL_ITEMS
 0001:02090B78       BERRY_ITEM_IDS
 0001:02090CB0       TM_MOVE_LIST
 0001:02090D7C       ITEM_GRAPHICS_CHARS_AND_PALETTES
 0001:02091778       WIPE_FUNCTIONS
 0001:02091AEA       russia_districts_list
 0001:02091B23       poland_provinces_list
 0001:02091B58       sweden_county_list
 0001:02091C42       state_number_list
 0001:02092150       FIELD_SND_COMMAND_ALLOWS_SUCCESSOR
 0001:02092190       song_list
 0001:02092264       ZONE_WK_BGM_MAP
 0001:020922E4       TR_CLASS_BATTLE_BG_OVERRIDES
 0001:020922E8       SPECIAL_TRAINER_CLASSES
 0001:02092340       TRAINER_CLASS_BACK_SPRITES
 0001:020923C0       TRAINER_CLASS_RESOURCES
 0001:02092770       ISS_SUBSYSTEM_FUNCS
 0001:020927DC       ENTRALINK_WEATHER_FLAG_ZONE_LOOKUP
 0001:02092A4C       VRAM_BANKS_128K
 0001:02092A58       SCREEN_CAPTURE_BANK_INFO
 0001:02092A88       g_SRTMatrix
 0001:02092AC4       CAPTURE_TEX_RESHEADER
 0001:02092AD4       CAPTURE_TEX_DATA_OFFSET
 0001:02092AD8       CAPTURE_TEX_RES
 0001:02092B20       CAPTURE_TEX_TREENODE
 0001:02092B24       CAPTURE_TEX_TREE_ENTRY_SIZE
 0001:02092B26       CAPTURE_TEX_TREE_STRINGS_OFFSET
 0001:02092B28       CAPTURE_TEX_TEXIMAGE_PARAM
 0001:02092B2C       CAPTURE_TEX_PARAM2
 0001:02092B30       CAPTURE_TEX_NAME
 0001:02092C20       EVENT_TITLE_FUNCS
 0001:02092F78       BIT_COUNT_MASKS
 0001:02092F81       ACTIVE_BITS_LUT
 0001:02092F8C       EIGHT_MINUS_LAST_ONE_BIT_LUT
 0001:0209308C       FIRST_ONE_BIT_LUT
 0001:0209318C       MAXIMUM_CONTINUOUS_ZERO_BITS_LUT
 0001:0209328C       OBJ_TILE_MAPPING_BOUNDARY_LUT
 0001:020932B4       VRAM_BANK_SIZES
 0001:020933BC       DEFAULT_SYSTEM_FONT
 0001:020933CC       SYSTEM_FONT_GLYPHS
 0001:02093CCC       SYSTEM_FONT_GLYPH_WIDTHS
 0001:02093DEC       DEFAULT_GX_LIGHT
 0001:02093DF4       DEFAULT_CAMERA_PROJECTION
 0001:02093E14       DEFAULT_LOOKAT
 0001:02093E48       obj_char_lut
 0001:02093E50       pltt_type_lut
 0001:02093F6C       SYSTEM_FONT_SPECIAL_CHARS_REMAP
 0001:02093FAC       BLACT_PIXEL_FORMATS
 0001:02093FC0       MMDL_BB_SIZETBL
 0001:02094000       BLACT_GEOM_QUADS
 0001:02094048       BLACT_DEFAULT_CONFIG
 0001:02094104       aSdw
 0001:02094108       dsi_wifi_unk
 0001:0209410C       aFreespotninten
 0001:020941F4       v_ExpHeapAllocator
 0001:020941FC       v_SystemHeapAllocator
 0001:02094204       GFX_UPLOAD_FUNCS
 0001:02094440       MAT_COLOR_MASKS
 0001:02094460       NNS_COMPACT_ROT_LUT
 0001:020945B4       FS_COMMAND_DEFAULT
 0001:020945E8       FS_VTABLE_BASE
 0001:020946E8       FX_SIN_COS_TABLE
 0001:020986E8       FX_ARCTG_TABLE
 0001:020987FC       TEX_VRAM_BANK_RANGES
 0001:020988B8       VOLUME_DB_TABLE
 0001:02098D0C       ascii_char
 0001:02098D8C       nibbleArray
 0001:02098E8C       aNan_3
 0001:02098E94       aInfinity
 0001:020990A8       STATIC_INITIALIZERS
 0001:020990C0       aA303
 0001:020990C8       aA305
 0001:020990D0       aA001
 0001:020990D8       aA306
 0001:020990E0       aA293
 0001:020990E8       aA304
 0001:020990F0       aA289
 0001:020990F8       aA302
 0001:02099100       aA297
 0001:02099108       aA307
 0001:02099110       aA298
 0001:02099118       aA281
 0001:02099120       aA277
 0001:02099128       aA296
 0001:02099130       aA295
 0001:02099138       aA294
 0001:02099140       aA269
 0001:02099148       aA292
 0001:02099150       aA291
 0001:02099158       aA290
 0001:02099160       aA261
 0001:02099168       aA288
 0001:02099170       aA287
 0001:02099178       aA286
 0001:02099180       aA299
 0001:02099188       aA282
 0001:02099190       aA283
 0001:02099198       aA300
 0001:020991A0       aA245
 0001:020991A8       aA280
 0001:020991B0       aA279
 0001:020991B8       aA278
 0001:020991C0       aA237
 0001:020991C8       aA276
 0001:020991D0       aA275
 0001:020991D8       aA274
 0001:020991E0       aA273
 0001:020991E8       aA272
 0001:020991F0       aA271
 0001:020991F8       aA270
 0001:02099200       aA221
 0001:02099208       aA268
 0001:02099210       aA267
 0001:02099218       aA266
 0001:02099220       aA265
 0001:02099228       aA264
 0001:02099230       aA263
 0001:02099238       aA262
 0001:02099240       aA205
 0001:02099248       aA260
 0001:02099250       aA259
 0001:02099258       aA258
 0001:02099260       aA257
 0001:02099268       aA256
 0001:02099270       aA255
 0001:02099278       aA254
 0001:02099280       aA250
 0001:02099288       aA251
 0001:02099290       aA284
 0001:02099298       aA186
 0001:020992A0       aA249
 0001:020992A8       aA248
 0001:020992B0       aA247
 0001:020992B8       aA246
 0001:020992C0       aA173
 0001:020992C8       aA244
 0001:020992D0       aA243
 0001:020992D8       aA242
 0001:020992E0       aA241
 0001:020992E8       aA240
 0001:020992F0       aA239
 0001:020992F8       aA238
 0001:02099300       aA157
 0001:02099308       aA236
 0001:02099310       aA235
 0001:02099318       aA234
 0001:02099320       aA233
 0001:02099328       aA232
 0001:02099330       aA231
 0001:02099338       aA230
 0001:02099340       aA229
 0001:02099348       aA228
 0001:02099350       aA227
 0001:02099358       aA226
 0001:02099360       aA225
 0001:02099368       aA224
 0001:02099370       aA223
 0001:02099378       aA222
 0001:02099380       aA125
 0001:02099388       aA220
 0001:02099390       aA219
 0001:02099398       aA218
 0001:020993A0       aA217
 0001:020993A8       aA216
 0001:020993B0       aA215
 0001:020993B8       aA214
 0001:020993C0       aA213
 0001:020993C8       aA212
 0001:020993D0       aA211
 0001:020993D8       aA210
 0001:020993E0       aA209
 0001:020993E8       aA208
 0001:020993F0       aA207
 0001:020993F8       aA206
 0001:02099400       aA093
 0001:02099408       aA204
 0001:02099410       aA203
 0001:02099418       aA202
 0001:02099420       aA201
 0001:02099428       aA200
 0001:02099430       aA199
 0001:02099438       aA198
 0001:02099440       aA197
 0001:02099448       aA196
 0001:02099450       aA195
 0001:02099458       aA194
 0001:02099460       aA193
 0001:02099468       aA192
 0001:02099470       aA191
 0001:02099478       aA190
 0001:02099480       aA187
 0001:02099488       aA252
 0001:02099490       aA188
 0001:02099498       aA060
 0001:020994A0       aA185
 0001:020994A8       aA184
 0001:020994B0       aA183
 0001:020994B8       aA182
 0001:020994C0       aA181
 0001:020994C8       aA180
 0001:020994D0       aA179
 0001:020994D8       aA178
 0001:020994E0       aA177
 0001:020994E8       aA176
 0001:020994F0       aA175
 0001:020994F8       aA174
 0001:02099500       aA029
 0001:02099508       aA172
 0001:02099510       aA171
 0001:02099518       aA170
 0001:02099520       aA169
 0001:02099528       aA168
 0001:02099530       aA167
 0001:02099538       aA166
 0001:02099540       aA165
 0001:02099548       aA164
 0001:02099550       aA163
 0001:02099558       aA162
 0001:02099560       aA161
 0001:02099568       aA160
 0001:02099570       aA159
 0001:02099578       aA158
 0001:02099580       aA061
 0001:02099588       aA156
 0001:02099590       aA155
 0001:02099598       aA154
 0001:020995A0       aA153
 0001:020995A8       aA152
 0001:020995B0       aA151
 0001:020995B8       aA150
 0001:020995C0       aA149
 0001:020995C8       aA148
 0001:020995D0       aA147
 0001:020995D8       aA146
 0001:020995E0       aA145
 0001:020995E8       aA144
 0001:020995F0       aA143
 0001:020995F8       aA142
 0001:02099600       aA141
 0001:02099608       aA140
 0001:02099610       aA139
 0001:02099618       aA138
 0001:02099620       aA137
 0001:02099628       aA136
 0001:02099630       aA135
 0001:02099638       aA134
 0001:02099640       aA133
 0001:02099648       aA132
 0001:02099650       aA131
 0001:02099658       aA130
 0001:02099660       aA129
 0001:02099668       aA128
 0001:02099670       aA127
 0001:02099678       aA126
 0001:02099680       aA189
 0001:02099688       aA124
 0001:02099690       aA123
 0001:02099698       aA122
 0001:020996A0       aA121
 0001:020996A8       aA120
 0001:020996B0       aA119
 0001:020996B8       aA118
 0001:020996C0       aA117
 0001:020996C8       aA116
 0001:020996D0       aA115
 0001:020996D8       aA114
 0001:020996E0       aA113
 0001:020996E8       aA112
 0001:020996F0       aA111
 0001:020996F8       aA110
 0001:02099700       aA109
 0001:02099708       aA108
 0001:02099710       aA107
 0001:02099718       aA106
 0001:02099720       aA105
 0001:02099728       aA104
 0001:02099730       aA103
 0001:02099738       aA102
 0001:02099740       aA101
 0001:02099748       aA100
 0001:02099750       aA099
 0001:02099758       aA098
 0001:02099760       aA097
 0001:02099768       aA096
 0001:02099770       aA095
 0001:02099778       aA094
 0001:02099780       aA253
 0001:02099788       aA092
 0001:02099790       aA091
 0001:02099798       aA090
 0001:020997A0       aA089
 0001:020997A8       aA088
 0001:020997B0       aA087
 0001:020997B8       aA086
 0001:020997C0       aA085
 0001:020997C8       aA084
 0001:020997D0       aA083
 0001:020997D8       aA082
 0001:020997E0       aA081
 0001:020997E8       aA080
 0001:020997F0       aA079
 0001:020997F8       aA078
 0001:02099800       aA077
 0001:02099808       aA076
 0001:02099810       aA075
 0001:02099818       aA074
 0001:02099820       aA073
 0001:02099828       aA072
 0001:02099830       aA071
 0001:02099838       aA070
 0001:02099840       aA069
 0001:02099848       aA068
 0001:02099850       aA067
 0001:02099858       aA066
 0001:02099860       aA065
 0001:02099868       aA064
 0001:02099870       aA063
 0001:02099878       aA062
 0001:02099880       aA285
 0001:02099888       aA301
 0001:02099890       aA059
 0001:02099898       aA058
 0001:020998A0       aA057
 0001:020998A8       aA056
 0001:020998B0       aA055
 0001:020998B8       aA054
 0001:020998C0       aA053
 0001:020998C8       aA052
 0001:020998D0       aA051
 0001:020998D8       aA050
 0001:020998E0       aA049
 0001:020998E8       aA048
 0001:020998F0       aA047
 0001:020998F8       aA046
 0001:02099900       aA045
 0001:02099908       aA044
 0001:02099910       aA043
 0001:02099918       aA042
 0001:02099920       aA041
 0001:02099928       aA040
 0001:02099930       aA039
 0001:02099938       aA038
 0001:02099940       aA037
 0001:02099948       aA036
 0001:02099950       aA035
 0001:02099958       aA034
 0001:02099960       aA033
 0001:02099968       aA032
 0001:02099970       aA031
 0001:02099978       aA030
 0001:02099980       aA000
 0001:02099988       aA028
 0001:02099990       aA027
 0001:02099998       aA026
 0001:020999A0       aA025
 0001:020999A8       aA024
 0001:020999B0       aA023
 0001:020999B8       aA022
 0001:020999C0       aA021
 0001:020999C8       aA020
 0001:020999D0       aA019
 0001:020999D8       aA018
 0001:020999E0       aA017
 0001:020999E8       aA016
 0001:020999F0       aA015
 0001:020999F8       aA014
 0001:02099A00       aA013
 0001:02099A08       aA012
 0001:02099A10       aA011
 0001:02099A18       aA010
 0001:02099A20       aA009
 0001:02099A28       aA008
 0001:02099A30       aA007
 0001:02099A38       aA006
 0001:02099A40       aA005
 0001:02099A48       aA004
 0001:02099A50       aA003
 0001:02099A58       aA002
 0001:02099A60       NARC_PATH_LIST
 0001:02099F30       aGfl_use_c
 0001:02099F3C       aSwan_sound_dat
 0001:02099F54       aPm_voice_c
 0001:02099F60       aFBfCNg
 0001:02099F6C       aSnd_mic_c
 0001:02099F78       aBgm_info_c
 0001:02099F84       aSnd_strm_c
 0001:02099F90       aSave_control_c
 0001:02099FA4       message
 0001:02099FA8       SavecontrolworkNull
 0001:02099FC0       aCtrlSv_extraExtra_i
 0001:02099FE8       a0_3
 0001:02099FEC       aTraynumBox_max_tray
 0001:0209A004       aTraynumBox_max_tr_0
 0001:0209A040       aPosBox_max_pos
 0001:0209A050       aTraynumBox_max_tr_1
 0001:0209A090       aPosBox_max_pos_0
 0001:0209A0A4       aBox_savedata_c
 0001:0209A0B4       aPerapvoice_c
 0001:0209A0C4       aMyitem_savedata_c
 0001:0209A0D8       aConfig_c
 0001:0209A0E4       aMystatus_c
 0001:0209A0F0       aPlaytime_c
 0001:0209A1A4       aMail_c
 0001:0209A1AC       aWifilist_c
 0001:0209A1B8       aMystery_data_c
 0001:0209A1C8       aRegulation_c
 0001:0209A1D8       aBattle_rec_c
 0001:0209A1E8       aMusical_dist_save_c
 0001:0209A1FC       aGds_profile_c
 0001:0209A20C       aBsubway_savedata_c
 0001:0209A220       aSymbol_save_c
 0001:0209A230       aBattle_examination_
 0001:0209A248       aPokewood_rec_c
 0001:0209A258       aCygnus_save_co
 0001:0209A270       aNet_err_c
 0001:0209A280       a0_4
 0001:0209A288       aNum_allbeacon_max
 0001:0209A2A0       a_localworkNull
 0001:0209A2B4       aWih_dwc_c
 0001:0209A2C0       a_localwork
 0001:0209A2CC       pBuf1
 0001:0209A2D8       a_localcfgNull
 0001:0209A2E8       a_localcfg
 0001:0209A2F4       aNet_save_c
 0001:0209A300       aGame_beacon_accesso
 0001:0209A318       sourceFile
 0001:0209A328       aFest_mission_c
 0001:0209A338       aVm_c
 0001:0209A340       aIca_anime_c
 0001:0209A34C       aNsbtx_to_clwk_c
 0001:0209A35C       aGame_event_c
 0001:0209A36C       aGame_data_c
 0001:0209A37C       aBtl_setup_c
 0001:0209A388       VERSION_SPECIFIC_ZONES
 0001:0209A394       VERSION_SPECIFIC_AREAS
 0001:0209A3A0       WT_BT_ZONES
 0001:0209A3B4       aZonedata_c
 0001:0209A3C0       aField_status_c
 0001:0209A3D0       aMcss_c
 0001:0209A3E8       aPoke_tool_c
 0001:0209A3F4       aPoke_regulation_c
 0001:0209A408       aPokeparty_c
 0001:0209A414       aPoke_personal_c
 0001:0209A424       EVOLVE_ICEROCK_ZONES
 0001:0209A426       EVOLVE_MOSSROCK_ZONES
 0001:0209A428       EVOLVE_ELEC_ZONES
 0001:0209A42E       EVOLVE_ELEC2_ZONES
 0001:0209A434       aShinka_check_c
 0001:0209A444       aWaza_tool_c
 0001:0209A450       aPrintsys_c
 0001:0209A45C       aGf_font_c
 0001:0209A468       aWordset_c
 0001:0209A474       g_PMLSpeciesNamesResident
 0001:0209A478       aBmp_menuwork_c
 0001:0209A488       aBmp_menu_c
 0001:0209A494       aBmp_menulist_c
 0001:0209A4A4       aBmp_cursor_c
 0001:0209A4B4       aFile_util_c
 0001:0209A4C0       g_FieldColorPostFXWeightG
 0001:0209A4C4       g_FieldColorPostFXWeightR
 0001:0209A4C8       g_FieldColorPostFXWeightB
 0001:0209A4CC       aPalanm_c
 0001:0209A4D8       aWipe_c
 0001:0209A560       aWipe_sub_c
 0001:0209A56C       aPmsi_param_c
 0001:0209A57C       aPms_word_c
 0001:0209A588       aInfowin_c
 0001:0209A594       aActor_tool_c
 0001:0209A5A4       aBmp_oam_c
 0001:0209A5B0       aCursor_move_c
 0001:0209A5C0       aGame_comm_c
 0001:0209A5D0       aGamebeaconsysN
 0001:0209A5E8       aGame_beacon_c
 0001:0209A5F8       aGamebeaconsysNull
 0001:0209A610       aBeacon_status_c
 0001:0209A620       aApp_taskmenu_c
 0001:0209A630       aApp_keycursor_c
 0001:0209A640       aPlayer_volume_fader
 0001:0209A658       FIELD_SND_EXEC_FUNCS
 0001:0209A694       FIELD_SND_CONTROL_FUNCS
 0001:0209A6D0       aField_sound_system_
 0001:0209A6E8       aRingtone_sys_c
 0001:0209A6F8       aTpoke_data_c
 0001:0209A708       aTr_tool_c
 0001:0209A714       aIss_city_sys_c
 0001:0209A724       aIss_city_unit_c
 0001:0209A734       aIss_road_sys_c
 0001:0209A744       aIss_dungeon_sys_c
 0001:0209A758       aIss_sys_c
 0001:0209A764       aIss_3ds_sys_c
 0001:0209A774       aIss_zone_sys_c
 0001:0209A784       aIss_switch_sys_c
 0001:0209A798       aIss_switch_set_c
 0001:0209A7AC       aIss_switch_c
 0001:0209A7BC       aBgwinfrm_c
 0001:0209A7D8       aPokegra_c
 0001:0209A7E4       aPms_draw_c
 0001:0209A7F0       aBag_param_c
 0001:0209A7FC       aCodein_param_c
 0001:0209A80C       aPlist_data_setup_c
 0001:0209A820       Screentex_c
 0001:0209A82C       Comm_player_support_c
 0001:0209A844       Blink_palanm_c
 0001:0209A854       Time_icon_c
 0001:0209A860       Resonance_resort_data_c
 0001:0209A878       Resort_binary_c
 0001:0209A888       Resort_work_c
 0001:0209A898       TRACK_HEAP_ID
 0001:0209A89C       SystemAlloc
 0001:0209A8AC       Tcbl_c
 0001:0209A8B4       Procsys_c
 0001:0209A8C0       Backup_system_c
 0001:0209A8D4       SvsysNull
 0001:0209A8E4       Svwk_sizeSvSavearea_size
 0001:0209A904       Next_frameTrue
 0001:0209A920       Lock_idOs_lock_id_error
 0001:0209A93C       aSavedata_c
 0001:0209A94C       aIdSvdtTable_ma
 0001:0209A964       aTableI_gmdatai
 0001:0209A97C       format
 0001:0209A9B0       aGmdataidSvdtTa
 0001:0209A9CC       aAreaman_c
 0001:0209A9D8       aVman_c
 0001:0209A9E0       string
 0001:0209A9E4       aGf_overlay_c
 0001:0209A9F8       _0
 0001:0209A9FC       aUi_c
 0001:0209AA04       aTouchpanel_c
 0001:0209AA14       aKey_c
 0001:0209AA20       aPdataarea
 0001:0209AA2C       a0
 0001:0209AA34       a0_0
 0001:0209AA38       aU16Size0xffff2
 0001:0209AA50       aRet
 0001:0209AA54       aNet_queue_c
 0001:0209AA60       aWm_icon_c
 0001:0209AA70       _0_0
 0001:0209AA98       aNet_system_c
 0001:0209AAAC       aNetidGfl_net_machin
 0001:0209AACC       aPnetiniBmpmode
 0001:0209AAE4       a0_1
 0001:0209AAE8       aNet_handle_c
 0001:0209AAF8       a_pbasework
 0001:0209AB04       a_pbasework_0
 0001:0209AB10       a_pbaseworkTimi
 0001:0209AB2C       aNetidGfl_net_n
 0001:0209AB48       aNetidGfl_net_handle
 0001:0209AB74       aNet_command_c
 0001:0209AB88       a_basetable_lis
 0001:0209ABA0       a_pcommandworkAnethu
 0001:0209ABD0       a_pcommandworkAnet_0
 0001:0209ABF8       aPnetiniMaxsendsize_
 0001:0209AC2C       aNull_pnetstate
 0001:0209AC40       aNet_state_c
 0001:0209AC4C       aU32_pnetstateAmacad
 0001:0209AC70       aPnetiniBnettypeGfl_
 0001:0209ACF4       a_pnetstate
 0001:0209AD00       a0_wifibattleerrorbf
 0001:0209AD24       aNet_c
 0001:0209AD30       aPnetPdevtable
 0001:0209AD40       aPnetinitMaxsendsize
 0001:0209AD70       a0_7
 0001:0209AD74       aSendid7
 0001:0209AD80       aPnetAnetinit_m
 0001:0209ADB4       aPnet
 0001:0209ADBC       aNet_irc_wireless_c
 0001:0209ADD4       a0_8
 0001:0209ADD8       aPtempNum_collectmac
 0001:0209ADF4       aNetiwsys
 0001:0209AE04       aNetldataworkNull
 0001:0209AE1C       aNet_lower_data_c
 0001:0209AE30       aNetldataworkNull_0
 0001:0209AE48       aNetldataworkSenddat
 0001:0209AE68       aNetldataworkPostwor
 0001:0209AE90       aNetldataworkPostw_0
 0001:0209AEB8       aBuffersizeIsNotEnou
 0001:0209AEDC       aGf_standard_c
 0001:0209AEEC       aBg_sys_c
 0001:0209AEF8       aBmp_c
 0001:0209AF00       aBmp_win_c
 0001:0209AF0C       g_GFLStrTerminator
 0001:0209AF10       aStrbuf_c
 0001:0209AF1C       aMsgdata_c
 0001:0209AF28       aSystemfont_c
 0001:0209AF38       aG3d_system_c
 0001:0209AF48       aG3d_util_c
 0001:0209AF54       aG3d_camera_c
 0001:0209AF64       aG3d_light_c
 0001:0209AF70       aArc_tool_c
 0001:0209AF80       aArchivemoveimagetop
 0001:0209AFAC       aDatcountDDatid
 0001:0209AFC4       aArc_util_c
 0001:0209AFE8       renderers
 0001:0209B018       ClactC
 0001:0209B024       a0_6
 0001:0209B028       TextprintC
 0001:0209B034       FadeC
 0001:0209B03C       Double3ddispC
 0001:0209B04C       BillboardC
 0001:0209B058       BillboardActC
 0001:0209B068       ParticleC
 0001:0209B074       ButtonManC
 0001:0209B09C       a0123456789abcd
 0001:0209B0C0       aSCCCCS
 0001:0209B0D4       aAbcdefghijklmnopqrs
 0001:0209B118       aSdkdev_gamespy_com
 0001:0209B12C       aGamestats_gs_ninten
 0001:0209B14C       aNwcusbap
 0001:0209B168       aGwi6Fs0nf
 0001:0209B178       aEgerAgSM
 0001:0209B188       a952uybjnpmu903biaBk5m
 0001:0209B1A4       a38g6zxjk20gvmv6JVy1
 0001:0209B1C0       aNdwcshap
 0001:0209B1CC       aNwcusbap_0
 0001:0209B1D8       aNintendoDs
 0001:0209B1E8       g_TexVRAMAllocFunc
 0001:0209B1EC       g_TexVRAMFreeFunc
 0001:0209B1F0       g_PltVRAMAllocFunc
 0001:0209B1F4       g_PltVRAMFreeFunc
 0001:0209B2C4       NNS_G3D_ANIMATION_INIT_HEADER_COUNT
 0001:0209B2E8       NNS_G3D_ANIMATION_INIT_HEADERS
 0001:0209B338       NNS_G3D_JOINT_FLUSH_FUNCS
 0001:0209B344       NNS_G3D_JOINT_SCALE_FUNCS
 0001:0209B350       NNS_G3D_TEX_MATRIX_FUNCS
 0001:0209B370       NNS_G3D_MATERIAL_APPLY_FUNCS
 0001:0209B390       g_NNSTextureSpaceConvMatrix
 0001:0209B3D4       NNS_BILLBOARD_START_PARAMS
 0001:0209B3DC       g_NNSBillboardMatrix
 0001:0209B40C       g_NNSBillboardScale
 0001:0209B424       g_NNSBillboardMatrix2
 0001:0209B454       g_NNSBillboardScale2
 0001:0209B460       NNS_G3D_RENDER_FUNC
 0001:0209B54C       aRom_1
 0001:0209B554       aS
 0001:0209B558       aRom_0
 0001:0209B55C       aRom
 0001:0209B564       g_GfxEngineAEnabled
 0001:0209B568       g_GfxDMANo
 0001:0209B570       MD5_SHIFTS
 0001:0209B630       MD5_PARTS_OF_SINES
 0001:0209B75C       MEMORY_PROTECTION_SET_FUNCS
 0001:0209B7D4       tgid_bak
 0001:0209B7D8       __files[0]
 0001:0209B7DC       __files_1_
 0001:0209B7E0       __files_2_
 0001:0209B824       stdout
 0001:0209B870       stderr
 0001:0209B8BC       inf
 0001:0209B8C0       float_high
 0001:0209B8C4       HUGE_VAL
 0001:0209B8D0       aT
 0001:0209B8D4       aAmPm
 0001:0209B914       aMDY
 0001:0209B920       _current_locale
 0001:0209B92C       aIMSP
 0001:0209B938       aABETY
 0001:0209B948       aSunSundayMonMondayTue
 0001:0209B9A0       aJanJanuaryFebFebruaryMarMarch
 0001:0209B9C3       aAprAprilMayMayJunJuneJulJuly
 0001:0209B9E7       aAugAugustSepSeptemberOctOctober
 0001:0209BA0C       aNovNovemberDecDecember
 0001:0209BAE8       aInf
 0001:0209BAF0       aInf_0
 0001:0209BAF8       aInf_1
 0001:0209BAFC       aInf_2
 0001:0209BB00       aNan
 0001:0209BB08       aNan_0
 0001:0209BB10       aNan_1
 0001:0209BB14       aNan_2
 0001:0209BB1C       str
 0001:0209BB20       random_next
 0001:0209BB24       pow_10
 0001:0209BB64       a54210108624275
 0001:0209BB94       a11102230246251
 0001:0209BBBC       a23283064365386
 0001:0209BBD4       a152587890625
 0001:0209BBE4       a390625
 0001:0209BBEC       a78125
 0001:0209BBF4       a15625
 0001:0209BBFC       a3125
 0001:0209BC04       a625
 0001:0209BC08       a125
 0001:0209BC0C       a25
 0001:0209BC10       a5
 0001:0209BC14       a1
 0001:0209BC18       a2
 0001:0209BC1C       a4
 0001:0209BC20       a8
 0001:0209BC24       a16
 0001:0209BC28       a32
 0001:0209BC2C       a64
 0001:0209BC30       a128
 0001:0209BC34       a256
 0001:0209BC38       a17976931348623
 0001:0209D780       CODESTORE_START
 0001:0209D798       g_GfxUploadQueueBuffer
 0001:0209DA98       g_VBlankCallback
 0001:0209DA9C       g_DeviceAllocHeap
 0001:0209DAA0       g_MainRAMMallocSubArea
 0001:0209DAA4       g_GFLVBlankCounter
 0001:0209DAA8       g_VBlankCallbackData
 0001:0209DAAC       g_GFLGlobalState
 0001:0209DAB4       g_GFLSndBGMStackPos
 0001:0209DB6C       g_GFLSndNowFadeInterval
 0001:0209DB98       g_SndPlayerStates
 0001:0209DC58       g_GFLSndThread
 0001:0209DEB8       g_GFLSndThreadStack
 0001:0209E2B8       g_GFLSndHeap
 0001:0213B2B8       g_PokeVoice
 0001:0213B358       g_PokeVoiceUsedHandleCount
 0001:0213B35A       g_PokeVoiceHandleMax
 0001:0213B35C       g_PokeVoiceFuncGetSndResID
 0001:0213B360       g_PokeVoiceFuncGetWaveInfo
 0001:0213B364       g_PokeVoiceMasterVolume
 0001:0213B368       g_PokeVoiceBlankSampleData
 0001:02140FA0       g_SaveControlWork
 0001:02140FB8       SAVEDATA_DREAM_RADAR
 0001:02141054       g_GflNetErr
 0001:021410C0       g_PassPowerState
 0001:02141134       g_GameSystem
 0001:0214113C       g_GameSysProcData
 0001:02141150       g_ZoneDataSystem
 0001:0214115C       g_PMLPersonalNowLoadForme
 0001:0214115E       g_PMLPersonalNowLoadSpecies
 0001:02141160       g_OTNameCompTemp
 0001:021411A0       g_PMLPkmStringTemp
 0001:021411E0       g_PersonalDataCache
 0001:02141294       g_PMLGrowTblCache
 0001:02141428       g_PMLPersonalArcBW2
 0001:0214142C       g_PMLPersonalArcBW1
 0001:02141430       g_PMLWazaTool
 0001:02141434       g_PMLMoveDataCache
 0001:02141458       g_TextRendererTempBitmap
 0001:0214145C       g_TextRenderer
 0001:02141478       g_LastTextColor2
 0001:02141479       g_TextColorIndex1
 0001:0214147A       g_LastTextColor3
 0001:0214147C       g_GlyphBitReader
 0001:02141488       TEXT_COLOR_SHUFFLE_LUT
 0001:02141688       g_GameSysTimer
 0001:02141840       g_GameBeaconSys
 0001:0214185C       g_HeapMgr
 0001:02141870       g_DTCMMallocSubArea
 0001:02141878       g_HeapDumpState
 0001:02141898       g_GameProcManager
 0001:021418A4       g_DebugPrintFinishFunc
 0001:021418A8       g_DebugPrintOutputFunc
 0001:021418AC       g_DebugPrintInitFunc
 0001:021418B0       g_AssertFailCallback
 0001:021418B4       g_DebugPrintState
 0001:021418C0       g_OvlManager
 0001:021418C4       g_SystemUI
 0001:021418CC       TouchpadBlock
 0001:0214194C       g_BGSys
 0001:02141950       g_EnabledBGsB
 0001:02141954       g_EnabledBGsA
 0001:02141958       g_BmpWinAllocator
 0001:0214195C       g_MsgDefaultLangID
 0001:02141960       g_SystemFont
 0001:02141964       g_G3DSystem
 0001:02141968       g_GFLG3DTotalRenderedFaces
 0001:0214196C       g_GFLG3DTotalRenderedVertices
 0001:02141970       g_ArcSys
 0001:0214197C       g_ClActSys
 0001:02141980       g_TextPrint
 0001:02141984       g_FadeMgr
 0001:02141988       g_Dual3D
 0001:02141990       ParticleSys
 0001:02141A80       g_GfxUploadQueue
 0001:02143A48       g_NNSG3DRenderState
 0001:02143B4C       g_NNSTempInvViewMatrix
 0001:02143B7C       g_NNSTempModelViewMatrix
 0001:02143BAC       g_NNSTempInvModelViewMatrix
 0001:02143C8C       g_TempLookAtEye
 0001:02143C98       g_TempLookAtUp
 0001:02143CA4       g_TempLookAtTarget
 0001:02143CB0       g_NNSG3DModelRenderer
 0001:02143CB4       g_NNSMaterials
 0001:02144AB4       g_NNSG3DJointScales
 0001:021450B4       g_NNSG3DIBPMatrices
 0001:02148DCC       g_SndChannels
 0001:02149990       g_NNSSndStreamExists
 0001:0214B4A8       g_CartReadThread
 0001:0214BFC4       g_ExtFileSystem
 0001:0214C020       FS_DMA_NO
 0001:0214C024       g_NDSFSCartMutex
 0001:0214C028       g_RomFSFileSystem
 0001:0214C084       g_IsFSInitialized
 0001:0214C08C       g_GfxEngineAMode
 0001:0214C08E       g_GfxCartLock
 0001:0214C090       g_GfxVRAMUploadBanksBGExtPltB
 0001:0214C094       g_GfxVRAMUploadAddrObjExtPltA
 0001:0214C098       g_GfxVRAMUploadBanksObjExtPltA
 0001:0214C09C       g_GfxVRAMUploadSubtrahendBGExtPltA
 0001:0214C0A0       g_GfxVRAMUploadAddrBGExtPltA
 0001:0214C0A4       g_GfxVRAMUploadBanksBGExtPltA
 0001:0214C0A8       g_GfxVRAMUploadBanksObjExtPltB
 0001:0214C0AC       g_GfxVRAMUploadBanksRearPlaneImage
 0001:0214C0B0       g_GfxTexVRAMFirstContinuousBase
 0001:0214C0B4       g_GfxVRAMUploadAddrPalette
 0001:0214C0B8       g_GfxVRAMUploadBanksPalette
 0001:0214C0BC       g_GfxVRAMUploadAddrRearPlaneImage
 0001:0214C0C0       g_GfxVRAMUploadBanksTexture
 0001:0214C0C4       g_GfxTexVRAMSecondContinuousBase
 0001:0214C0C8       g_GfxTexVRAMFirstContinuousLength
 0001:0214C0CC       g_GfxVRAMLCDCBanks
 0001:0214C0CE       g_GfxVRAMBGBanksA
 0001:0214C0D0       g_GfxVRAMObjBanksA
 0001:0214C0D2       g_GfxVRAMPlainARM7Banks
 0001:0214C0D4       g_GfxVRAMTexBanks
 0001:0214C0D6       g_GfxVRAMPltBanks
 0001:0214C0D8       g_GfxVRAMRearPlaneImageBanks
 0001:0214C0DA       g_GfxVRAMBGExtPltBanksA
 0001:0214C0DC       g_GfxVRAMObjExtPltBanksA
 0001:0214C0DE       g_GfxVRAMBGBanksB
 0001:0214C0E0       g_GfxVRAMObjBanksB
 0001:0214C0E2       g_GfxVRAMBGExtPltBanksB
 0001:0214C0E4       g_GfxVRAMObjExtPltBanksB
 0001:0214C268       g_ThreadCount
 0001:0214C26C       g_IsThreadSwitchRequested
 0001:0214C270       g_CurrentThread
 0001:0214C274       g_ThreadList
 0001:0214C27C       g_IdleThread
 0001:0214C33C       g_MainThread
 0001:0214C4C8       g_DSiDetectResult
 0001:0214C4E0       g_DSiDetectDoneFlag
 0001:0214C4E4       g_IsUserMemMarkDone
 0001:0214C4EC       g_AllocAreas
 0001:0214C514       g_ExcUndefAbortCallbackData
 0001:0214C518       g_ExcUndefAbortCallback
 0001:0214C53C       g_ExcRegDump
 0001:0214C5A0       g_ExcCP15Control
 0001:0214C5A8       g_ExcSPAnd1
 0001:0214C5B0       g_ClockIsInitialized
 0001:0214C5B8       g_SystemClockBaseCounter
 0001:0214EE08       g_ExitIsError
 000E:0217F640       TrAI_CreateVM
 000E:0217F6F0       ChooseMoveForBattleStyle
 000E:0217F7C0       TrAI_Free
 000E:0217F7FC       TrainerAIEnv_SetupData
 000E:0217F874       GetChosenMoveIndex
 000E:0217F880       GetChosenTarget
 000E:0217F88C       ChooseMove_Singles
 000E:0217F9C4       ChooseMove_Doubles
 000E:0217FCFC       DoAIProcessing
 000E:0217FE5C       AI000_IfRandomUnder
 000E:0217FE6C       AI001_IfRandomOver
 000E:0217FE7C       AI002_IfRandomEqual
 000E:0217FE8C       AI003_IfRandomNotEqual
 000E:0217FE9C       CompareToRandom
 000E:0217FECC       AI004_IncrementScore
 000E:0217FEF4       AI005_IfHPUnder
 000E:0217FF04       AI006_IfHPOver
 000E:0217FF14       AI007_IfHPEqual
 000E:0217FF24       AI008_IfHPNotEqual
 000E:0217FF34       CompareHP
 000E:0217FF7C       AI009_IfHasStatus
 000E:0217FF8C       AI010_IfDoesNotHaveStatus
 000E:0217FF9C       CheckStatusCondition
 000E:0217FFDC       AI011_IfHasCondition
 000E:0217FFEC       AI012_IfDoesNotHaveCondition
 000E:02180044       AI013_IfBadlyPoisoned
 000E:02180054       AI014_IfNotBadlyPoisoned
 000E:021800C0       AI015_IfHasConditionFlag
 000E:021800D0       AI016_IfDoesNotHaveConditionFlag
 000E:02180128       AI017_IfSideCondition
 000E:02180138       AI018_IfDoesNotHaveSideCondition
 000E:02180194       AI019_IfUnder
 000E:021801A4       AI020_IfOver
 000E:021801B4       AI021_IfEqual
 000E:021801C4       AI022_IfNotEqual
 000E:021801D4       AI023_IfBit
 000E:021801E4       AI024_IfNotBit
 000E:02180218       AI025_IfMove
 000E:02180228       AI026_IfNotMove
 000E:02180238       CheckMove
 000E:0218025C       AI027_IfInTable
 000E:021802A4       AI028_IfNotInTable
 000E:021802F0       AI029_IfHasDamagingMove
 000E:0218035C       AI030_IfDoesNotHaveDamagingMove
 000E:021803C8       AI031_GetTurn
 000E:021803E0       AI032_GetType
 000E:02180410       jpt_218040E
 000E:02180482       def_218040E
 000E:02180488       AI033_GetBasePower
 000E:0218049C       AI034_CalcMoveDamage
 000E:02180540       AI035_GetPreviousMove
 000E:02180564       AI038_CompareSpeed
 000E:021805D0       AI039_GetTeamCount
 000E:02180648       AI040_GetMoveID
 000E:02180654       AI041_GetMoveEffect
 000E:0218066C       AI042_GuessAbility
 000E:02180690       AI043_Nop
 000E:02180698       AI044_GetMoveEffectiveness
 000E:021806EC       AI045_IfPartyMonStatused
 000E:021806FC       AI046_IfNoStatusInParty
 000E:0218079C       AI047_GetWeather
 000E:021807AC       AI048_IfHasMoveEffect
 000E:021807BC       AI049_IfDoesNotHaveMoveEffect
 000E:021807CC       CompareMoveID
 000E:02180800       AI050_IfStatStageUnder
 000E:02180810       AI051_IfStatStageOver
 000E:02180820       AI052_IfStatStageEqual
 000E:02180830       AI053_IfStatStageNotEqual
 000E:02180840       CompareStatStage
 000E:02180890       AI054_IfCanFaint
 000E:021808A0       AI055_IfCannotFaint
 000E:02180914       AI056_IfHasMove
 000E:02180924       AI057_IfDoesNotHaveMove
 000E:02180A18       AI058_IfHasMoveWithEffect
 000E:02180A28       AI059_IfDoesNotHaveMoveWithEffect
 000E:02180AEC       AI060_Nop
 000E:02180AF4       AI061_RoamerFlee
 000E:02180B0C       AI062_Nop
 000E:02180B14       AI063_Nop
 000E:02180B1C       AI064_GetHeldItem
 000E:02180B40       AI065_GetItemEffect
 000E:02180B74       AI066_GetSex
 000E:02180B9C       AI067_GetTurnsOnField
 000E:02180BCC       AI068_GetStockpileCount
 000E:02180BF4       AI069_GetBattleStyle
 000E:02180C04       AI070_GetBattleType
 000E:02180C14       AI071_GetUsedItem
 000E:02180C38       AI072_Nop
 000E:02180C40       AI073_GetMovePower
 000E:02180C64       AI074_GetMoveEffect
 000E:02180C88       AI075_GetProtectCount
 000E:02180CD0       AI076_Jump
 000E:02180CEC       AI077_End
 000E:02180D04       AI078_CompareLevel
 000E:02180D60       AI079_IfTaunted
 000E:02180D70       AI080_IfNotTaunted
 000E:02180D80       CheckTauntStatus
 000E:02180DA8       AI081_IfTargetIsAlly
 000E:02180DD4       AI082_IfMonHasType
 000E:02180E20       AI083_IfMonHasAbility
 000E:02180E58       AI084_IfFlashFireActive
 000E:02180E98       AI085_IfHasItem
 000E:02180EDC       AI086_IfFieldEffect
 000E:02180F0C       AI087_GetSideConditionCount
 000E:02180F40       AI088_IfPartyMonDamaged
 000E:02180FDC       AI089_IfPartyMonPPDecreased
 000E:021810B8       AI090_GetFlingPower
 000E:02181104       AI091_GetMovePP
 000E:0218111C       AI092_IfLastResortActive
 000E:0218116C       AI093_GetMoveCategory
 000E:02181184       AI094_GetPreviousMoveCategory
 000E:021811AC       AI095_GetOrderInTurn
 000E:021811DC       AI096_GetSlowStartTurn
 000E:02181200       AI097_IfPartyMonDoesMoreDamage
 000E:021812B8       AI098_IfHasSuperEffectiveMove
 000E:0218133C       AI099_IfLastMoveDamageCheck
 000E:021813CC       AI100_GetPositiveStatStageTotal
 000E:0218142C       AI101_GetStatStageDifference
 000E:02181470       AI102_Nop
 000E:02181478       AI103_Nop
 000E:02181480       AI104_Nop
 000E:02181488       AI105_CalcMoveDamageWithPartner
 000E:021815B0       AI106_IsFainted
 000E:021815C0       AI107_IsNotFainted
 000E:021815D0       CheckIfFainted
 000E:02181610       AI108_GetAbility
 000E:02181638       AI109_IfSubstitute
 000E:02181674       AI110_GetSpecies
 000E:02181698       AI111_IfRandomSeedUnder
 000E:021816A8       AI112_IfRandomSeedOver
 000E:021816B8       AI113_IfRandomSeedEqual
 000E:021816C8       AI114_IfRandomSeedNotEqual
 000E:021816D8       CompareToSeededRandom
 000E:02181700       AI115_ReadMoveEffectJumpTable
 000E:02181774       AI116_IfFutureSightOverSlot
 000E:021817B4       AI117_IsAtkLessThanSpAtk
 000E:021817C4       AI118_IsAtkGreaterThanSpAtk
 000E:021817D4       AI119_IsAtkEqualToSpAtk
 000E:021817E4       CompareOffensiveStats
 000E:02181834       AIConditionalJump
 000E:02181848       jpt_2181846
 000E:0218188C       def_2181846
 000E:021818A0       GetBattlePosFromCommandArg
 000E:021818B2       jpt_21818B0
 000E:021818C0       def_21818B0
 000E:021818DC       jpt_21818DA
 000E:02181926       def_21818DA
 000E:02181928       jpt_2181926
 000E:0218195C       def_2181926
 000E:02181960       GuessAbility
 000E:02181A3C       GetBattleMonFromBattlePos
 000E:02181A48       j_BattleParty_GetMonData
 000E:02181A64       RegisterDefenderUsedMove
 000E:02181AB8       AIGetMoveParam
 000E:02181AC4       AIGetMoveFlag
 000E:02181CC0       AIScrVMSetup
 000E:02181CF4       AI_SCRCMD
 000E:02181EE0       aTrAiC
 0005:02199900       MainModule_Init
 0005:02199D2E       jpt_2199D2C
 0005:02199DEA       def_2199D2C
 0005:02199F00       MainModule_SetSubProcForSetup
 0005:02199F2E       jpt_2199F2C
 0005:02199F8E       def_2199F2C
 0005:02199FB0       jpt_2199FAE
 0005:02199FF8       def_2199FAE
 0005:0219A044       IsOnlineBattle
 0005:0219A056       jpt_219A054
 0005:0219A06E       def_219A054
 0005:0219A1C0       MainModule_CheckNumFrontPos
 0005:0219A1D6       jpt_219A1D4
 0005:0219A224       def_219A1D4
 0005:0219A648       jpt_219A646
 0005:0219A680       def_219A646
 0005:0219AE10       jpt_219AE0E
 0005:0219AE34       def_219AE0E
 0005:0219AFC4       jpt_219AFC2
 0005:0219B182       def_219AFC2
 0005:0219B1DC       jpt_219B1DA
 0005:0219B420       jpt_219B41E
 0005:0219B4D6       def_219B41E
 0005:0219BDC0       BtlSetup_GetBattleStyle
 0005:0219BDC8       MainModule_AreMoveAnimationsEnabled
 0005:0219BDD8       MainModule_GetBadgeCount
 0005:0219BDE0       MainModule_IsSwitchMode
 0005:0219BE88       MainModule_IsOnlineBattle
 0005:0219BE9C       PokePos_GetValidPosMax
 0005:0219BEB0       jpt_219BEAE
 0005:0219BEC8       def_219BEAE
 0005:0219BECC       PokePos_GetFrontPosNum
 0005:0219BEE0       jpt_219BEDE
 0005:0219BEFC       MainModule_IsFrontPos
 0005:0219BF14       MainModule_GetBattleType
 0005:0219BF1C       MainModule_GetBattleSetupType
 0005:0219BF24       MainModule_GetCommMode
 0005:0219BF2C       MainModule_IsPartnerBattle
 0005:0219BF40       GetWinBGMNo
 0005:0219BF60       MainModule_GetEscapeMode
 0005:0219BF76       jpt_219BF74
 0005:0219BF9A       def_219BF74
 0005:0219BFA0       BtlSetup_GetFieldStatus
 0005:0219BFA8       MainModule_GetPlayerStatus
 0005:0219BFB0       MainModule_IsRegisteredInPokedex
 0005:0219BFC8       MainModule_GetPokedexRegisteredCount
 0005:0219BFD8       MainModule_GetGameData
 0005:0219BFE0       MainModule_RegisterPokedexSeenFlag
 0005:0219C024       MainModule_ExpandBattlePos
 0005:0219C062       jpt_219C060
 0005:0219C06A       def_219C060
 0005:0219C094       MainModule_ExpandPokePosSingle
 0005:0219C0A8       jpt_219C0A6
 0005:0219C0BA       def_219C0A6
 0005:0219C0E0       MainModule_ExpandPokePosDouble
 0005:0219C0F8       jpt_219C0F6
 0005:0219C10C       def_219C0F6
 0005:0219C198       MainModule_ExpandPokePosTriple
 0005:0219C1BC       jpt_219C1BA
 0005:0219C1D0       def_219C1BA
 0005:0219C448       MainModule_DoesClientExist
 0005:0219C470       MainModule_GetClientSide
 0005:0219C498       MainModule_GetClientPokePos
 0005:0219C4E4       GetAllyPokePos
 0005:0219C51A       jpt_219C518
 0005:0219C522       def_219C518
 0005:0219C594       IsOpponentClientID
 0005:0219C5A8       MainModule_BattlePosToClientID
 0005:0219C5B4       MainModule_PokeIDToClientID
 0005:0219C5E4       MainModule_ExpandExistPokeID
 0005:0219C638       MainModule_PokeIDToPokePos
 0005:0219C66C       MainModule_PokeIDToViewPos
 0005:0219C688       j_MainModule_PokeIDToClientID
 0005:0219C690       j_MainModule_BattlePosToClientID
 0005:0219C6D4       MainModule_BattlePosToClientIDAndPosIndex
 0005:0219C71C       MainModule_BattlePosToViewPos
 0005:0219C784       MainModule_ViewPosToBattlePos
 0005:0219C7E4       MainModule_IsCompetitiveBattleType
 0005:0219C808       MainModule_GetPokeParty
 0005:0219C828       MainModule_GetAllyPokeParty
 0005:0219C8A0       GetPlayerClientID
 0005:0219C8AC       MainModule_GetPartnerClientID
 0005:0219C8BC       MainModule_GetAllyClientID_0
 0005:0219C8D8       MainModule_IsAllyClientID
 0005:0219C8F8       MainModule_GetPlayerAllyClientID
 0005:0219C910       MainModule_GetAllyClientID
 0005:0219C93C       MainModule_SubItem
 0005:0219C968       MainModule_AddItem
 0005:0219C994       MainModule_GetItemWork
 0005:0219C9C8       MainModule_IsCompetitorScenarioMode
 0005:0219CA38       MainModule_GetDebugFlag
 0005:0219CA88       MainModule_NotifyBattleResult
 0005:0219CA98       j_MainModule_CheckWinner
 0005:0219CAA0       MainModule_NotifyCmdCheckError
 0005:0219CAB8       MainModule_GetWinMoney
 0005:0219CB2C       MainModule_GetBonusMoney
 0005:0219CBBC       MainModule_BGMFadeOutDisable
 0005:0219CBCC       ChangeFriendshipWhenFainted
 0005:0219CBF0       ChangeFriendship
 0005:0219CC74       MainModule_UpdateMovesAfterLevelUp
 0005:0219CC98       MainModule_GetIllusionDisguise
 0005:0219CCFC       PokeCon_Init
 0005:0219CD40       PokeCon_Free
 0005:0219CD7C       PokeCon_SetParty
 0005:0219CF50       GetPartyPkmnEligibleForBattle
 0005:0219CF90       PokeCon_Clear
 0005:0219CFB8       PokeCon_UpdateParty
 0005:0219D0BC       PokeCon_UpdatePartyStartOrder
 0005:0219D178       PokeCon_GetSrcParty
 0005:0219D180       PokeCon_FindPoke
 0005:0219D1C0       j_PokeCon_GetFrontPokeData
 0005:0219D1C8       PokeCon_GetFrontPokeData
 0005:0219D228       PokeCon_GetClientPokeData
 0005:0219D23C       PokeCon_GetClientMonData
 0005:0219D250       PokeCon_GetBattleMon
 0005:0219D25C       PokeCon_GetBattleMonConst
 0005:0219D2D4       j_MainModule_CheckNumFrontPos
 0005:0219D2DC       MainModule_GetClientBenchPosIdx
 0005:0219D340       MainModule_IsAllyMonID
 0005:0219D35C       GetSideFromMonID
 0005:0219D36C       GetSideFromOpposingMonID
 0005:0219D388       IsPosInRangeTripleBattle
 0005:0219D408       PokeCon_GetBattleParty
 0005:0219D414       PokeCon_GetBattlePartyConst
 0005:0219D420       MainModule_GetTurnCount
 0005:0219D438       PokeCon_GetAlivePartyCount
 0005:0219D474       BattleParty_Init
 0005:0219D488       BattleParty_AddMember
 0005:0219D494       BattleParty_MoveAlivePokeToFirst
 0005:0219D4C8       BattleParty_GetPartyCount
 0005:0219D4CC       BattleParty_GetAlivePartyCount
 0005:0219D4F8       BattleParty_GetAliveMemberCountRear
 0005:0219D524       BattleParty_GetPartyMember
 0005:0219D534       BattleParty_GetMonData
 0005:0219D544       BattleParty_SwapMembers
 0005:0219D558       BattleParty_MoveToLast
 0005:0219D584       BattleParty_RotateMembers
 0005:0219D5CC       BattleParty_FindPartyMon
 0005:0219D5F0       BattleParty_FindPartyMemberByPokeID
 0005:0219D61C       BattleParty_GetNextAliveMon
 0005:0219D644       MainModule_SetIllusionForParty
 0005:0219D6EC       TrainerParam_Init
 0005:0219D71C       TrainerParam_Clear
 0005:0219D8C8       TrainerParam_HasTrainerInfo
 0005:0219D8DC       TrainerParam_GetItem
 0005:0219D904       TrainerParam_LoadNameAndClass
 0005:0219D914       TrainerParam_GetAIFlags
 0005:0219D95C       TrainerParam_GetID
 0005:0219D978       TrainerParam_GetClass
 0005:0219D9BC       TrainerParam_GetTrainerInfoPtr
 0005:0219D9E8       MainModule_GetBattleField
 0005:0219D9F0       srcParty_Create
 0005:0219DAD4       GetSrcParty
 0005:0219DB04       BtlSetup_IsBattleType
 0005:0219DB10       RecordData_Increment
 0005:0219DB68       MainModule_IsNotCompetitiveBattle
 0005:0219DBA4       MainModule_NotifyPokemonLevelUp
 0005:0219DC40       MainModule_NotifyPokemonCapture
 0005:0219DEC4       MainModule_CheckWinner
 0005:0219DF3C       MainModule_GetCmdLimitTime
 0005:0219E1A4       BtlSetup_ClearFields
 0005:0219E1F0       MainModule_UpdateBtlSetupData
 0005:0219E34C       MainModule_GetBtlSetup
 0005:0219E350       MainModule_GetBtlSetup_0
 0005:0219E3DC       MainModule_GetPokestarScriptPtr
 0005:0219E408       nullsub_24
 0005:0219E40C       BtlServer_Init
 0005:0219E4D8       BattleServer_AttachClient
 0005:0219E510       BattleServer_CmdCheckMode
 0005:0219E584       BattleServer_Startup
 0005:0219E5A0       BattleServer_Free
 0005:0219E630       BattleServer_ChangeSequence
 0005:0219E660       jpt_219E65E
 0005:0219E6E8       def_219E65E
 0005:0219E708       jpt_219E706
 0005:0219E75E       def_219E706
 0005:0219E80E       jpt_219E80C
 0005:0219E956       jpt_219E954
 0005:0219EA48       jpt_219EA46
 0005:0219EA70       def_219EA46
 0005:0219EA76       def_219E954
 0005:0219EA84       BattleServer_DoesSwitchModeNeedConfirming
 0005:0219EAE4       BattleServer_GetNextEnemyForSwitchMode
 0005:0219EB3E       jpt_219EB3C
 0005:0219EC06       jpt_219EC04
 0005:0219EC34       def_219EC04
 0005:0219EC3A       def_219EB3C
 0005:0219ECF8       jpt_219ECF6
 0005:0219ED2C       def_219ECF6
 0005:0219EF24       CMDCHECK_RestoreActionData
 0005:0219EFB0       nullsub_46
 0005:0219EFB4       CMDCHECK_Make
 0005:0219EFD8       jpt_219EFD6
 0005:0219F01E       def_219EFD6
 0005:0219F1DC       BattleServer_IsWaitingClientReply
 0005:0219F240       BattleServer_InitAdapters
 0005:0219F26C       Svcl_Clear
 0005:0219F274       Svcl_IsEnabled
 0005:0219F2A0       BattleServer_GetClientWork_0
 0005:0219F2BC       BattleServer_GetClientWork
 0005:0219F2D4       BattleServer_IsClientEnabled
 0005:0219F300       BattleServer_NotifyPokemonLevelUp
 0005:0219F320       BattleServer_NotifyPokemonCapture
 0005:0219F388       BattleServer_InitChangePokemonReq
 0005:0219F398       BattleServer_RequestChangePokemon
 0005:0219F3CC       BattleServer_GetServerFlow
 0005:0219F3D0       ServerFlow_Init
 0005:0219F438       j_ServerFlow_ClearWorks
 0005:0219F440       ServerFlow_ClearWorks
 0005:0219F570       MoveRecord_Clear
 0005:0219F580       FaintRecord_Clear
 0005:0219F590       PosPoke_Clear
 0005:0219F5A0       BattleSideStatus_Clear
 0005:0219F5C8       ServerFlow_SetupBeforeFirstTurn
 0005:0219F69C       ServerFlow_StartTurnBoot
 0005:0219F6AC       ServerFlow_StartTurn
 0005:0219F72C       j_j_FaintRecord_StartTurn
 0005:0219F730       j_FaintRecord_StartTurn
 0005:0219F73C       ServerFlow_ClearPokeNoActionFlag
 0005:0219F788       ServerFlow_ContinueAfterSwitchBoot
 0005:0219F794       ServerFlow_ContinueAfterSwitch
 0005:0219F7E8       ServerFlow_StartAfterPokeInBoot
 0005:0219F7F4       ServerFlow_StartAfterPokeIn
 0005:0219F9F0       j_j_DeadRec_GetCount
 0005:0219F9F4       j_DeadRec_GetCount
 0005:0219FA00       j_j_DeadRec_GetCount_0
 0005:0219FA04       j_DeadRec_GetCount_0
 0005:0219FA10       ServerFlow_ActOrderProcMain
 0005:0219FB6C       j_j_DeadRec_GetCount_1
 0005:0219FB70       j_DeadRec_GetCount_1
 0005:0219FCB4       ServerControl_ActOrderProc_OnlyPokeIn
 0005:0219FD44       ServerControl_CheckMatchup
 0005:0219FDE4       ServerFlow_CheckPlayerSideAlive
 0005:0219FE34       ServerFlow_MakePlayerEscapeCommand
 0005:0219FEDC       j_j_PosPoke_GetClientEmptyPos
 0005:0219FEE0       j_PosPoke_GetClientEmptyPos
 0005:0219FEEC       ServerControl_GravityCheck
 0005:0219FFB0       ServerFlow_ReqChangePokeForServer
 0005:021A0014       j_j_PosPoke_GetClientEmptyPos_0
 0005:021A0018       j_PosPoke_GetClientEmptyPos_0
 0005:021A0024       ServerFlow_GetEscapeInfoPointer
 0005:021A003C       ServerControl_BeforeFirstFight
 0005:021A00E4       ServerFlow_GenerateActionOrder
 0005:021A01FC       jpt_21A01FA
 0005:021A023C       def_21A01FA
 0005:021A0348       SortActionSub
 0005:021A03C0       ServerEvent_GetMovePriority
 0005:021A041C       ServerEvent_CalculateSpeed
 0005:021A04E0       ActionOrder_SearchByMonID
 0005:021A0584       ActionOrder_SearchByMoveID
 0005:021A05EC       ActionOrderTool_SearchForComboMove
 0005:021A0640       ActionOrderTool_GetIndex
 0005:021A0670       ActionOrderTool_Interrupt
 0005:021A0728       ActionOrderTool_SendToLast
 0005:021A07B8       ActionOrder_Proc
 0005:021A0878       jpt_21A0876
 0005:021A0952       def_21A0876
 0005:021A09C4       j_j_PosPoke_IsExist
 0005:021A09C8       j_PosPoke_IsExist
 0005:021A09D4       ServerControl_ActProcStart
 0005:021A0A0C       ServerEvent_ActProcStart
 0005:021A0A48       ServerEvent_ActProcEnd
 0005:021A0A84       ServerFlow_CheckActionIgnoreReason
 0005:021A0B68       ServerEvent_CheckSleepFail
 0005:021A0BA8       ActionOrder_InterruptProc
 0005:021A0C20       j_j_GetBattlePos
 0005:021A0C24       j_GetBattlePos
 0005:021A0C30       ActionOrder_InterruptReserve
 0005:021A0C58       ActionOrder_InterruptReserveByMove
 0005:021A0C98       ActionOrder_SendToLast
 0005:021A0CB8       ActionOrder_ForceDone
 0005:021A0CC8       MoveAnimCtrl_Init
 0005:021A0CE8       MoveAnimCtrl_Setup
 0005:021A0D4C       j_PokeSet_GetCountMax
 0005:021A0D5C       j_PosPoke_GetPokeExistPos
 0005:021A0D6C       j_PokeSet_GetCount_2
 0005:021A0D7C       j_PokeSet_Get_1
 0005:021A0D8C       j_PosPoke_GetPokeExistPos_0
 0005:021A0D9C       FRONT_POKE_SEEK_InitWork
 0005:021A0E34       FRONT_POKE_SEEK_GetNext
 0005:021A0F24       ServerControl_MoveCore
 0005:021A0FBC       j_j_PosPoke_Swap
 0005:021A0FC0       j_PosPoke_Swap
 0005:021A0FCC       ServerControl_AfterMove
 0005:021A1000       ServerControl_AfterMoveCore
 0005:021A103C       ServerEvent_AfterMove
 0005:021A106C       ServerControl_Escape
 0005:021A10F4       ServerControl_EscapeSub
 0005:021A11A0       ServerEvent_SkipRunCalc
 0005:021A11F0       ServerControl_RunCore
 0005:021A1338       ServerEvent_CheckRunPrevent
 0005:021A1384       j_j_BTL_SICKEVENT_CheckEscapeForbid
 0005:021A1388       j_BTL_SICKEVENT_CheckEscapeForbid
 0005:021A1394       ServerEvent_RunExitMessage
 0005:021A13D8       ServerControl_SwitchInCore
 0005:021A14AC       j_j_PosPoke_SwitchIn
 0005:021A14B0       j_PosPoke_SwitchIn
 0005:021A14BC       ServerControl_SwitchInFillSlot
 0005:021A14E8       ServerControl_AfterSwitchIn
 0005:021A1610       j_j_PokeSet_Clear
 0005:021A1614       j_PokeSet_Clear
 0005:021A1620       j_j_PokeSet_Add
 0005:021A1624       j_PokeSet_Add
 0005:021A1630       j_j_PokeSet_SortBySpeed_0
 0005:021A1634       j_PokeSet_SortBySpeed_0
 0005:021A1640       j_j_PokeSet_SeekStart_21
 0005:021A1644       j_PokeSet_SeekStart_21
 0005:021A1650       j_j_PokeSet_SeekNext_43
 0005:021A1654       j_PokeSet_SeekNext_43
 0005:021A1660       j_j_PokeSet_SeekNext_42
 0005:021A1664       j_PokeSet_SeekNext_42
 0005:021A1670       ServerEvent_SwitchIn
 0005:021A16A0       ServerEvent_AbilityUrge
 0005:021A16D4       ServerEvent_AfterSwitchInPrevious
 0005:021A16F4       ServerEvent_AfterLastSwitchIn
 0005:021A1714       ServerControl_CheckActivation
 0005:021A1740       ServerEvent_CheckActivation
 0005:021A1760       ServerDisplay_SwitchOutMessage
 0005:021A1780       ServerControl_Switch
 0005:021A17E8       ServerControl_SwitchOut
 0005:021A1864       ServerControl_SwitchOutCore
 0005:021A18F0       j_j_PosPoke_SwitchOut
 0005:021A18F4       j_PosPoke_SwitchOut
 0005:021A1900       ServerControl_SwitchOutConfirm
 0005:021A1930       CheckEncoreMoveChange
 0005:021A1980       ServerControl_Fight
 0005:021A1E20       j_j_PokeSet_Clear_3
 0005:021A1E24       j_PokeSet_Clear_3
 0005:021A1E30       j_j_PokeSet_Clear_4
 0005:021A1E34       j_PokeSet_Clear_4
 0005:021A1E40       j_PokeSet_GetCountMax_0
 0005:021A1E50       j_PokeSet_RemoveDisablePoke_0
 0005:021A1E60       j_PokeSet_CopyAlive
 0005:021A1E70       j_PokeSet_SetDefaultTargetCount
 0005:021A1E80       j_WazaRec_Add
 0005:021A1E90       ServerControl_CheckReqMoveFail
 0005:021A1EE8       ServerControl_MagicCoat
 0005:021A2000       MoveStealParam_Init
 0005:021A2014       MoveStealParam_Add
 0005:021A2038       ServerControl_StealMoveRoot
 0005:021A2108       ServerControl_CheckComboMoveExe
 0005:021A2154       ServerControl_MoveCallDecide
 0005:021A2190       ServerEvent_MoveCallDecide
 0005:021A21D4       ServerControl_CheckComboMoveReady
 0005:021A22CC       ServerControl_CheckDelayMoveSet
 0005:021A2360       ServerEvent_CheckDelayMoveSet
 0005:021A23AC       ServerControl_DecideDelayMove
 0005:021A23DC       ServerEvent_DecideDelayMove
 0005:021A240C       ServerControl_StartMoveSeq
 0005:021A2444       ServerEvent_StartMoveSeq
 0005:021A247C       ServerControl_EndMoveSeq
 0005:021A24B8       ServerEvent_EndMoveSeq
 0005:021A24FC       ServerEvent_StealMove
 0005:021A2548       ServerEvent_ReflectMove
 0005:021A259C       ServerControl_CheckStealMove
 0005:021A25EC       j_j_PosPoke_GetPokeExistPos_5
 0005:021A25F0       j_PosPoke_GetPokeExistPos_5
 0005:021A25FC       ServerEvent_CheckStealMove
 0005:021A26A4       j_PokeSet_GetCount_8
 0005:021A26B0       j_PokeSet_Get_6
 0005:021A26C0       ServerControl_ReqMoveEffect
 0005:021A26F0       ServerFlow_CheckPlayersPoke
 0005:021A2714       ServerControl_MoveUseRecordUpdate
 0005:021A2740       ServerControl_MoveStart
 0005:021A279A       jpt_21A2798
 0005:021A2848       jpt_21A2846
 0005:021A2866       def_21A2846
 0005:021A299C       jpt_21A299A
 0005:021A2A2E       def_21A299A
 0005:021A2AD4       j_j_PokeSet_Clear_5
 0005:021A2AD8       j_PokeSet_Clear_5
 0005:021A2AE4       j_j_PokeSet_RemoveDisablePoke
 0005:021A2AE8       j_PokeSet_RemoveDisablePoke
 0005:021A2AF4       j_j_PokeSet_IsRemovedAll
 0005:021A2AF8       j_PokeSet_IsRemovedAll
 0005:021A2B04       j_j_PokeSet_IsRemovedAll_2
 0005:021A2B08       j_PokeSet_IsRemovedAll_2
 0005:021A2B14       j_j_PokeSet_IsRemovedAll_3
 0005:021A2B18       j_PokeSet_IsRemovedAll_3
 0005:021A2B24       j_j_MoveRecord_SetEffectiveLast
 0005:021A2B28       j_MoveRecord_SetEffectiveLast
 0005:021A2B34       ServerControl_AvoidOutOfRangeMove
 0005:021A2B8C       j_PokeSet_SeekStart_16
 0005:021A2B9C       j_PokeSet_SeekNext_32
 0005:021A2BAC       j_PokeSet_Remove_5
 0005:021A2BBC       j_PokeSet_SeekNext_33
 0005:021A2BCC       ServerControl_CheckMovedPokeAvoid
 0005:021A2C20       j_PokeSet_GetCountMax_3
 0005:021A2C30       j_j_PokeSet_Get_2
 0005:021A2C34       j_PokeSet_Get_2
 0005:021A2C40       j_PokeSet_Remove_6
 0005:021A2C50       ServerEvent_MoveEffectivenessCheckEnable
 0005:021A2C9C       ServerControl_SubstituteExclude
 0005:021A2CEC       j_PokeSet_SeekStart_17
 0005:021A2CFC       j_PokeSet_SeekNext_34
 0005:021A2D0C       j_j_PokeSet_Remove_7
 0005:021A2D10       j_PokeSet_Remove_7
 0005:021A2D1C       j_PokeSet_SeekNext_35
 0005:021A2D2C       ServerControl_MoveUseEffective
 0005:021A2D64       ServerControl_MoveUseNotEffective
 0005:021A2D9C       ServerControl_MoveUseEnd
 0005:021A2DD4       ServerEvent_MoveUseEnd_Common
 0005:021A2E0C       ServerControl_IsGuaranteedHit
 0005:021A2EC0       flowsub_CheckNoEffect_TypeAffinity
 0005:021A2F54       j_j_PokeSet_SeekStart_7
 0005:021A2F58       j_PokeSet_SeekStart_7
 0005:021A2F64       j_PokeSet_SeekNext_29
 0005:021A2F74       j_PokeSet_Remove_8
 0005:021A2F78       j_PokeSet_Remove
 0005:021A2F84       j_PokeSet_SeekNext_28
 0005:021A2F94       flowsub_CheckNoEffect_Protect
 0005:021A30D0       j_PokeSet_SeekStart_10
 0005:021A30E0       j_PokeSet_SeekNext_18
 0005:021A30F0       j_PokeSet_Remove_0
 0005:021A3100       j_PokeSet_SeekNext_19
 0005:021A3110       j_PokeSet_SeekStart_11
 0005:021A3120       j_PokeSet_SeekNext_20
 0005:021A3130       j_PokeSet_Remove_1
 0005:021A3140       j_PokeSet_SeekNext_21
 0005:021A3150       j_PokeSet_SeekStart_12
 0005:021A3160       j_PokeSet_SeekNext_22
 0005:021A3170       j_PokeSet_Remove_2
 0005:021A3180       j_PokeSet_SeekNext_23
 0005:021A3190       j_PokeSet_SeekStart_13
 0005:021A31A0       j_PokeSet_SeekNext_24
 0005:021A31B0       j_PokeSet_Remove_3
 0005:021A31C0       j_PokeSet_SeekNext_25
 0005:021A31D0       ServerControl_CheckNoEffectCore
 0005:021A3270       ServerEvent_CheckNoEffect
 0005:021A3320       flowsub_CheckPokeHideAvoid
 0005:021A3378       j_j_PokeSet_SeekStart_19
 0005:021A337C       j_PokeSet_SeekStart_19
 0005:021A3388       j_j_PokeSet_SeekNext_38
 0005:021A338C       j_PokeSet_SeekNext_38
 0005:021A3398       j_j_PokeSet_Remove_9
 0005:021A339C       j_PokeSet_Remove_9
 0005:021A33A8       j_j_PokeSet_SeekNext_39
 0005:021A33AC       j_PokeSet_SeekNext_39
 0005:021A33B8       flowsub_CheckWazaAvoid
 0005:021A3428       j_PokeSet_GetCountMax_4
 0005:021A3438       j_PokeSet_Get_8
 0005:021A3448       j_PokeSet_SeekStart_20
 0005:021A3458       j_PokeSet_SeekNext_41
 0005:021A3468       j_PokeSet_Remove_10
 0005:021A3478       j_PokeSet_SeekNext_40
 0005:021A3488       ServerEvent_SkipAvoidCheck
 0005:021A34E4       IsTargetInRangeTripleBattle
 0005:021A3544       ServerEvent_CheckHit
 0005:021A36B4       ServerDisplay_MoveAnimation
 0005:021A36EC       ServerControl_ChargeUpMoveUse
 0005:021A3808       ServerControl_HideTurnStart
 0005:021A3924       j_PokeSet_Get_7
 0005:021A3934       j_PosPoke_GetPokeExistPos_9
 0005:021A3944       ServerControl_ChargeUpLockClear
 0005:021A3990       ServerControl_SkyDropStart
 0005:021A3A44       ServerControl_SkyDropCheckRelease
 0005:021A3AF0       j_PosPoke_IsExist_8
 0005:021A3B00       ServerControl_MoveExecuteCheck1
 0005:021A3D30       ServerControl_MoveExecuteCheck2
 0005:021A3D58       ServerEvent_MoveExecuteFail
 0005:021A3DB0       ServerEvent_CheckMoveExecute
 0005:021A3E00       ServerControl_CheckConfusionHit
 0005:021A3E90       ServerControl_CheckAttract
 0005:021A3EBC       ServerControl_CheckMoveExeSleepCure
 0005:021A3EE8       ServerControl_CheckMoveExeFreezeThaw
 0005:021A3F34       ServerControl_MoveExecuteFail
 0005:021A4004       ServerDisplay_MoveExecuteFailMessage
 0005:021A401E       def_21A4028
 0005:021A402A       jpt_21A4028
 0005:021A4264       ServerControl_SetMonCounter
 0005:021A4290       ServerControl_DecrementPPUsedMove
 0005:021A42B8       ServerEvent_DecrementPPVolume
 0005:021A434C       j_PokeSet_GetCount_9
 0005:021A435C       j_PokeSet_Get_9
 0005:021A436C       j_PokeSet_Get_10
 0005:021A437C       ServerControl_DecrementPP
 0005:021A43B0       ServerDisplay_DecrementPP
 0005:021A4400       ServerControl_DamageRoot
 0005:021A4500       j_j_PokeSet_Clear_6
 0005:021A4504       j_PokeSet_Clear_6
 0005:021A4510       j_j_PokeSet_GetCount_6
 0005:021A4514       j_PokeSet_GetCount_6
 0005:021A4520       j_j_PokeSet_GetCountMax_1
 0005:021A4524       j_PokeSet_GetCountMax_1
 0005:021A4530       CALCDMG_Set
 0005:021A46E4       j_PokeSet_SeekStart_9
 0005:021A46F4       j_PokeSet_SeekNext_16
 0005:021A4704       j_PokeSet_SeekNext_17
 0005:021A4714       CALCDMG_GetCount
 0005:021A4718       CALCDMG_GetSubstituteHitPoke
 0005:021A4794       CALCDMG_GetAllHitPoke
 0005:021A47C8       CALCDMG_GetRealHitPoke
 0005:021A4850       CALCDMG_GetDamageSum
 0005:021A4870       ServerControl_DamageSingleCount
 0005:021A49A4       j_j_PokeSet_GetCountMax_2
 0005:021A49A8       j_PokeSet_GetCountMax_2
 0005:021A49B4       j_j_PokeSet_GetCount_3
 0005:021A49B8       j_PokeSet_GetCount_3
 0005:021A49C4       j_j_PokeSet_CopyAllies
 0005:021A49C8       j_PokeSet_CopyAllies
 0005:021A49D4       j_j_PokeSet_CopyEnemies
 0005:021A49D8       j_PokeSet_CopyEnemies
 0005:021A49E4       j_j_PokeSet_GetCount_4
 0005:021A49E8       j_PokeSet_GetCount_4
 0005:021A49F4       j_j_PokeSet_GetCount_7
 0005:021A49F8       j_PokeSet_GetCount_7
 0005:021A4A04       ServerControl_DamageMultiCount
 0005:021A4C24       j_PokeSet_Get_5
 0005:021A4C34       j_PosPoke_GetPokeExistPos_2
 0005:021A4C44       j_PosPoke_GetPokeExistPos_3
 0005:021A4C54       j_PosPoke_GetPokeExistPos_4
 0005:021A4C64       HitCheck_ClearCount
 0005:021A4C74       HitCheck_IsMultiHitMove
 0005:021A4C78       HitCheck_SetMultiHitEffectiveness
 0005:021A4C84       ServerControl_DamageSide
 0005:021A4CD0       ServerControl_DamageSideCore
 0005:021A4F7C       a6
 0005:021A4F88       a7
 0005:021A4F90       j_PosPoke_GetPokeExistPos_1
 0005:021A4FA0       j_PokeSet_AddWithDamage_1
 0005:021A4FB0       j_PokeSet_AddWithDamage_0
 0005:021A4FC0       ServerControl_ApplyDamageToRecover
 0005:021A504C       j_PokeSet_SeekStart_14
 0005:021A505C       j_PokeSet_SeekNext_26
 0005:021A506C       j_PokeSet_Remove_4
 0005:021A507C       j_PokeSet_SeekNext_27
 0005:021A508C       ServerDisplay_DamageEffectiveness
 0005:021A50B4       RoundDamage
 0005:021A50C8       ServerControl_DetermineDamage
 0005:021A5104       ServerEvent_DetermineMoveDamage
 0005:021A5158       ServerControl_CheckEndure
 0005:021A51D8       ServerControl_Endure
 0005:021A5238       ServerEvent_Endure
 0005:021A5268       ServerControl_AfterDamageReaction
 0005:021A52AC       ServerEvent_AfterDamageReaction
 0005:021A5308       ServerControl_RecordMoveDamage
 0005:021A5360       ServerControl_MoveAdditionalEffect
 0005:021A53B4       ServerControl_MoveDamageSideAfter
 0005:021A53F0       ServerEvent_MoveDamageSideAfter
 0005:021A543C       ServerControl_CheckItemReaction
 0005:021A547C       ServerEvent_CheckItemReaction
 0005:021A54B8       ServerControl_DamageProcessingStart
 0005:021A54F0       ServerEvent_DamageProcessingStart
 0005:021A5534       ServerControl_DamageProcessingEnd
 0005:021A560C       j_j_PokeSet_SeekStart
 0005:021A5610       j_PokeSet_SeekStart
 0005:021A561C       j_j_PokeSet_SeekNext
 0005:021A5620       j_PokeSet_SeekNext
 0005:021A562C       j_j_PokeSet_SeekNext_0
 0005:021A5630       j_PokeSet_SeekNext_0
 0005:021A563C       ServerEvent_DamageProcessingEndSub
 0005:021A5728       j_j_PokeSet_GetCount
 0005:021A572C       j_PokeSet_GetCount
 0005:021A5738       j_j_PokeSet_Get
 0005:021A573C       j_PokeSet_Get
 0005:021A5748       j_j_PokeSet_GetDamageReal
 0005:021A574C       j_PokeSet_GetDamageReal
 0005:021A5758       j_j_PokeSet_GetDamage
 0005:021A575C       j_PokeSet_GetDamage
 0005:021A5768       ServerEvent_DamageProcessingEnd
 0005:021A57AC       ServerControl_CheckFlinch
 0005:021A57C4       ServerControl_DamageFreezeThaw
 0005:021A5810       j_j_PokeSet_SeekStart_0
 0005:021A5814       j_PokeSet_SeekStart_0
 0005:021A5820       j_j_PokeSet_SeekNext_1
 0005:021A5824       j_PokeSet_SeekNext_1
 0005:021A5830       j_j_PokeSet_SeekNext_2
 0005:021A5834       j_PokeSet_SeekNext_2
 0005:021A5840       ServerControl_FlinchCore
 0005:021A58AC       ServerControl_DamageDrain
 0005:021A58F4       ServerControl_DrainCore
 0005:021A5958       ServerEvent_CalcDamage
 0005:021A5B38       ServerControl_CalcRecoil
 0005:021A5BAC       ServerControl_CheckSimpleDamageEnabled
 0005:021A5BC0       ServerControl_SimpleDamageCore
 0005:021A5C18       ServerControl_UseHeldItem
 0005:021A5CE4       j_j_DoesBattleMonExist
 0005:021A5CE8       j_DoesBattleMonExist
 0005:021A5CF4       ServerEvent_CheckHeldItemFail
 0005:021A5D40       ServerControl_ChangeHeldItem
 0005:021A5E04       ServerControl_FaintPokemon
 0005:021A5E1C       ServerControl_DamageAddCondition
 0005:021A5E5C       ServerEvent_CheckMoveAddCondition
 0005:021A5F78       ServerControl_SimpleCondition
 0005:021A6054       j_j_PokeSet_GetCount_0
 0005:021A6058       j_PokeSet_GetCount_0
 0005:021A6064       j_j_PokeSet_SeekStart_1
 0005:021A6068       j_PokeSet_SeekStart_1
 0005:021A6074       j_j_PokeSet_SeekNext_3
 0005:021A6078       j_PokeSet_SeekNext_3
 0005:021A6084       j_j_PokeSet_SeekNext_4
 0005:021A6088       j_PokeSet_SeekNext_4
 0005:021A6094       ServerControl_MoveConditionCore
 0005:021A613C       ServerEvent_DecideSpecialMoveCondition
 0005:021A6198       ServerEvent_AddMoveConditionString
 0005:021A61EC       ServerEvent_MoveConditionContinue
 0005:021A6248       ServerEvent_AddCondition
 0005:021A6290       ServerControl_AddConditionCheckFail
 0005:021A631C       AddConditionCheckFailOverwrite
 0005:021A6400       ServerControl_AddCondition
 0005:021A6426       jpt_21A6424
 0005:021A6472       def_21A6424
 0005:021A6590       j_j_Condition_MakeDefaultMessage
 0005:021A6594       j_Condition_MakeDefaultMessage
 0005:021A65A0       ServerEvent_GetWeather
 0005:021A65E0       ServerEvent_GetWeightRatio
 0005:021A662C       ServerEvent_MoveConditionCheckFail
 0005:021A6694       ServerEvent_AddConditionFailed
 0005:021A66E0       ServerEvent_ConditionConfirmed
 0005:021A6740       ServerEvent_MoveStatusConfirmed
 0005:021A6798       ServerEvent_AbilityNullified
 0005:021A67C8       ServerEvent_DamageAddEffect
 0005:021A6800       ServerEvent_CheckAddStatStageChance
 0005:021A68B4       ServerControl_SimpleEffect
 0005:021A690C       j_j_PokeSet_SeekStart_2
 0005:021A6910       j_PokeSet_SeekStart_2
 0005:021A691C       j_j_PokeSet_SeekNext_5
 0005:021A6920       j_PokeSet_SeekNext_5
 0005:021A692C       j_j_PokeSet_SeekNext_6
 0005:021A6930       j_PokeSet_SeekNext_6
 0005:021A693C       wazaSerial_Inc
 0005:021A6954       ServerControl_MoveStatStageChangeEffectCommon
 0005:021A6A60       ServerEvent_GetMoveStatChangeValue
 0005:021A6AF8       ServerControl_StatStageChangeCore
 0005:021A6C1C       ServerEvent_CheckSubstituteInteraction
 0005:021A6C74       ServerControl_EffectCondition
 0005:021A6D34       j_j_PokeSet_SeekStart_3
 0005:021A6D38       j_PokeSet_SeekStart_3
 0005:021A6D44       j_j_PokeSet_SeekNext_7
 0005:021A6D48       j_PokeSet_SeekNext_7
 0005:021A6D54       j_PokeSet_SeekNext_44
 0005:021A6D64       ServerControl_SimpleRecover
 0005:021A6E0C       j_j_PokeSet_SeekStart_4
 0005:021A6E10       j_PokeSet_SeekStart_4
 0005:021A6E1C       j_j_PokeSet_SeekNext_8
 0005:021A6E20       j_PokeSet_SeekNext_8
 0005:021A6E2C       j_j_PokeSet_SeekNext_9
 0005:021A6E30       j_PokeSet_SeekNext_9
 0005:021A6E3C       ServerControl_RecoverHP
 0005:021A6E60       ServerControl_RecoverHPCheckFail
 0005:021A6E84       ServerControl_RecoverHPCheckFailSpecial
 0005:021A6ED8       ServerControl_RecoverHPCore
 0005:021A6F18       j_PosPoke_GetPokeExistPos_10
 0005:021A6F28       ServerControl_OHKO
 0005:021A7150       j_j_PokeSet_Get_11
 0005:021A7154       j_PokeSet_Get_11
 0005:021A7160       j_j_GetBattlePos_0
 0005:021A7164       j_GetBattlePos_0
 0005:021A7170       j_j_PokeSet_AddWithDamage_2
 0005:021A7174       j_PokeSet_AddWithDamage_2
 0005:021A7180       j_j_PokeSet_AddWithDamage
 0005:021A7184       j_PokeSet_AddWithDamage
 0005:021A7190       ServerControl_OHKOSuccess
 0005:021A71D8       ServerControl_OHKOEndure
 0005:021A7210       ServerControl_OHKOSubstitute
 0005:021A725C       ServerControl_ForceSwitch
 0005:021A72D0       j_j_PokeSet_SeekStart_5
 0005:021A72D4       j_PokeSet_SeekStart_5
 0005:021A72E0       j_j_PokeSet_SeekNext_10
 0005:021A72E4       j_PokeSet_SeekNext_10
 0005:021A72F0       j_j_PokeSet_SeekNext_11
 0005:021A72F4       j_PokeSet_SeekNext_11
 0005:021A7300       ServerControl_ForceSwitchCore
 0005:021A74BC       CheckForceSwitchEffect
 0005:021A74E4       GetForceSwitchNextPokeIndex
 0005:021A753C       ServerEvent_CheckForceSwitch
 0005:021A7588       j_Condition_CheckForceSwitchFail_0
 0005:021A758C       j_Condition_CheckForceSwitchFail
 0005:021A7598       ServerControl_FieldEffect
 0005:021A7658       ServerControl_ChangeWeather
 0005:021A767C       ServerControl_ChangeWeatherCheck
 0005:021A76A8       ServerControl_ChangeWeatherCore
 0005:021A76D0       ServerControl_ChangeWeatherAfter
 0005:021A7700       ServerEvent_IncreaseMoveWeatherTurns
 0005:021A7750       ServerControl_FieldEffectCore
 0005:021A77BC       ServerEvent_CallFieldEffect
 0005:021A77F8       ServerDisplay_UncategorizedMove
 0005:021A78EC       j_j_PokeSet_IsRemovedAll_1
 0005:021A78F0       j_PokeSet_IsRemovedAll_1
 0005:021A78FC       ServerDisplay_SkillSwap
 0005:021A7A9C       j_j_PokeSet_Get_3
 0005:021A7AA0       j_PokeSet_Get_3
 0005:021A7AAC       j_CheckSkillSwapFailAbility
 0005:021A7ABC       j_CheckSkillSwapFailAbility_0
 0005:021A7ACC       ServerControl_UnnerveAction
 0005:021A7B24       ServerEvent_CreateSubstitute
 0005:021A7BE4       j_j_PosPoke_GetPokeExistPos_11
 0005:021A7BE8       j_PosPoke_GetPokeExistPos_11
 0005:021A7BF4       ServerControl_SubstituteDamage
 0005:021A7CB0       ServerEvent_SubstituteDelete
 0005:021A7CF8       j_PosPoke_GetPokeExistPos_12
 0005:021A7D08       ServerControl_MoveDamageReaction
 0005:021A7D58       ServerEvent_MoveDamageReaction
 0005:021A7DF4       ServerEvent_UncategorizedMove
 0005:021A7EB0       j_j_PokeSet_GetCountMax_5
 0005:021A7EB4       j_PokeSet_GetCountMax_5
 0005:021A7EC0       j_j_PokeSet_GetCount_10
 0005:021A7EC4       j_PokeSet_GetCount_10
 0005:021A7ED0       j_j_PokeSet_Get_12
 0005:021A7ED4       j_PokeSet_Get_12
 0005:021A7EE0       ServerControl_SortBySpeed
 0005:021A7F2C       j_PokeSet_Clear_2
 0005:021A7F3C       j_PokeSet_Add_0
 0005:021A7F4C       j_PokeSet_SortBySpeed
 0005:021A7F5C       ServerControl_TurnCheck
 0005:021A7F98       jpt_21A7F96
 0005:021A80C4       def_21A7F96
 0005:021A80D0       j_j_j_PokeSet_SeekStart_18_0
 0005:021A80D4       j_j_PokeSet_SeekStart_18_0
 0005:021A80D8       j_PokeSet_SeekStart_18
 0005:021A80E4       j_j_PokeSet_SeekNext_36
 0005:021A80E8       j_PokeSet_SeekNext_36
 0005:021A80F4       j_j_PokeSet_SeekNext_37
 0005:021A80F8       j_PokeSet_SeekNext_37
 0005:021A8214       j_j_PosPoke_GetPokeExistPos_6
 0005:021A8218       j_PosPoke_GetPokeExistPos_6
 0005:021A8224       j_j_PosPoke_GetPokeExistPos_7
 0005:021A8228       j_PosPoke_GetPokeExistPos_7
 0005:021A8234       ServerControl_TurnCheck_CommSupport
 0005:021A8328       ServerControl_TurnCheckSub
 0005:021A83D0       j_j_PokeSet_SeekStart_8
 0005:021A83D4       j_PokeSet_SeekStart_8
 0005:021A83E0       j_j_PokeSet_SeekNext_14
 0005:021A83E4       j_PokeSet_SeekNext_14
 0005:021A83F0       j_j_PokeSet_SeekNext_15
 0005:021A83F4       j_PokeSet_SeekNext_15
 0005:021A8400       ServerEvent_TurnCheck
 0005:021A842C       ServerControl_TurnCheckCondition
 0005:021A8524       j_j_PokeSet_GetCount_1
 0005:021A8528       j_PokeSet_GetCount_1
 0005:021A8534       j_j_PokeSet_Get_0
 0005:021A8538       j_PokeSet_Get_0
 0005:021A8544       j_j_GetMoveConditionByTurnCheckOrder
 0005:021A8548       j_GetMoveConditionByTurnCheckOrder
 0005:021A8554       j_j_Condition_TurnCheckCallback
 0005:021A8558       j_Condition_TurnCheckCallback
 0005:021A8564       ConditionDamageRecall
 0005:021A85A8       jpt_21A85A6
 0005:021A85E2       def_21A85A6
 0005:021A862C       j_j_Condition_CreateDamageMessage
 0005:021A8630       j_Condition_CreateDamageMessage
 0005:021A863C       ServerEvent_ConditionDamage
 0005:021A868C       ServerControl_TurnCheckSide
 0005:021A869C       ServerControl_SideEffectEndMessage
 0005:021A86AC       ServerControl_SideEffectEndMessageCore
 0005:021A86C4       jpt_21A86C2
 0005:021A870E       def_21A86C2
 0005:021A8724       ServerControl_TurnCheckField
 0005:021A8740       TurnCheckCallback_Field
 0005:021A8750       ServerControl_FieldEffectEnd
 0005:021A876A       jpt_21A8768
 0005:021A8788       def_21A8768
 0005:021A87EC       j_PokeSet_SeekStart_15
 0005:021A87FC       j_PokeSet_SeekNext_30
 0005:021A880C       j_PokeSet_SeekNext_31
 0005:021A881C       ServerControl_TurnCheckWeather
 0005:021A8908       j_j_PokeSet_SeekStart_6
 0005:021A890C       j_PokeSet_SeekStart_6
 0005:021A8918       j_j_PokeSet_SeekNext_12
 0005:021A891C       j_PokeSet_SeekNext_12
 0005:021A8928       j_j_PokeSet_SeekNext_13
 0005:021A892C       j_PokeSet_SeekNext_13
 0005:021A8938       ServerEvent_CheckWeatherReaction
 0005:021A89A4       ServerDisplay_WeatherDamage
 0005:021A8A64       ServerControl_CheckFainted
 0005:021A8B78       j_FaintRecord_Add
 0005:021A8B88       j_PosPoke_SwitchOut_0
 0005:021A8B98       GetEnemyMaxLevel
 0005:021A8BF8       j_PosPoke_GetExistPokeID
 0005:021A8C08       ServerControl_ClearMonDependentEffects
 0005:021A8CD0       ServerEvent_BeforeFaint
 0005:021A8D00       ServerControl_CheckExpGet
 0005:021A8DEC       j_j_DeadRec_GetCount_2
 0005:021A8DF0       j_DeadRec_GetCount_2
 0005:021A8DFC       j_j_FaintRecord_GetExpCheckedFlag
 0005:021A8E00       j_FaintRecord_GetExpCheckedFlag
 0005:021A8E0C       j_j_FaintRecord_GetPokeID_0
 0005:021A8E10       j_FaintRecord_GetPokeID_0
 0005:021A8E1C       j_j_FaintRecord_SetExpCheckedFlag
 0005:021A8E20       j_FaintRecord_SetExpCheckedFlag
 0005:021A8E2C       ServerControl_GetExp
 0005:021A8EA8       ServerControl_AddExp
 0005:021A8F70       ServerControl_HideTurnCancel
 0005:021A8FCC       EventWorkStack_Init
 0005:021A8FD8       ServerDisplay_AddEffectAtPosition
 0005:021A9004       j_j_GetBattlePos_1
 0005:021A9008       j_GetBattlePos_1
 0005:021A9020       ServerDisplay_CheckConfusionHit
 0005:021A9054       ServerDisplay_Attract
 0005:021A9098       ServerDisplay_SetDamage
 0005:021A90D4       ServerDisplay_CureStatus
 0005:021A915C       ServerDisplay_MoveMessage
 0005:021A9178       ServerControl_CureCondition
 0005:021A91F0       j_PosPoke_GetPokeExistPos_16
 0005:021A9200       ConvertConditionCode
 0005:021A9270       ServerDisplay_MoveFail
 0005:021A9284       ServerDisplay_MoveAvoid
 0005:021A92A8       ServerDisplay_MoveNoEffect
 0005:021A92CC       ServerDisplay_MoveNoEffectOHKO
 0005:021A92F0       ServerDisplay_MultiHitMoveDamage
 0005:021A9398       ServerDisplay_MoveEffectivenessMessage
 0005:021A951C       ServerDisplay_CriticalMessage
 0005:021A9574       ServerDisplay_AbilityPopupAdd
 0005:021A958C       ServerDisplay_AbilityPopupRemove
 0005:021A95A4       ServerDisplay_StatStageLimit
 0005:021A95E4       ServerDisplay_StatStage
 0005:021A96CC       ServerDisplay_SimpleHP
 0005:021A972C       j_j_GetBattlePos_2
 0005:021A9730       j_GetBattlePos_2
 0005:021A973C       ServerDisplay_FaintPokemon
 0005:021A9774       ServerDisplay_AddCondition
 0005:021A97CC       AddConditionCheckFailStandard
 0005:021A97F8       jpt_21A97F6
 0005:021A9882       def_21A97F6
 0005:021A98E0       ServerDisplay_MessageSet
 0005:021A9904       ServerDisplay_StandardMessage
 0005:021A991A       jpt_21A9918
 0005:021A9924       def_21A9918
 0005:021A99A0       ServerDisplay_StandardMessageEx
 0005:021A99BA       jpt_21A99B8
 0005:021A99C4       def_21A99B8
 0005:021A9A54       ServerDisplay_SetMessage
 0005:021A9A6A       jpt_21A9A68
 0005:021A9A74       def_21A9A68
 0005:021A9AF0       ServerDisplay_SetMessageEx
 0005:021A9B0A       jpt_21A9B08
 0005:021A9B14       def_21A9B08
 0005:021A9BA4       ServerDisplay_DecreaseHP
 0005:021A9BD8       ServerDisplay_RecoverPP
 0005:021A9C2C       ServerDisplay_UseHeldItem
 0005:021A9C44       ServerDisplay_SetConditionFlag
 0005:021A9C68       ServerDisplay_ResetConditionFlag
 0005:021A9C8C       ServerDisplay_SetTurnFlag
 0005:021A9CB0       ServerDisplay_IllusionSet
 0005:021A9CE8       ServerEvent_InterruptSwitch
 0005:021A9E30       ServerEvent_GetReqMoveParam
 0005:021A9EA8       ServerEvent_CheckSpecialPriority
 0005:021A9EEC       ServerEvent_BeforeFight
 0005:021A9F28       ServerControl_CalcSetDamage
 0005:021A9FB0       ServerEvent_MoveRequestMessage
 0005:021AA00C       ServerEvent_GetMoveParam
 0005:021AA0BC       ServerEvent_CheckMoveExecuteFail
 0005:021AA100       ServerEvent_MoveExecuteStart
 0005:021AA1A0       j_PokeSet_GetCount_5
 0005:021AA1B0       j_PokeSet_Get_4
 0005:021AA1C0       ServerEvent_CheckProtectBreak
 0005:021AA204       ServerEvent_CheckChargeUpFail
 0005:021AA278       ServerEvent_CheckChargeUpSkip
 0005:021AA2C4       ServerEvent_ChargeUpStart
 0005:021AA380       j_PokeSet_GetCount_13
 0005:021AA390       j_PokeSet_Get_16
 0005:021AA3A0       ServerEvent_ChargeUpStartDone
 0005:021AA3D0       ServerEvent_ChargeUpSkip
 0005:021AA400       ServerEvent_ChargeUpRelease
 0005:021AA480       j_PokeSet_GetCount_12
 0005:021AA490       j_PokeSet_Get_15
 0005:021AA4A0       ServerEvent_CheckHiding
 0005:021AA510       ServerEvent_BypassAccuracyCheck
 0005:021AA55C       ServerEvent_GetMoveAccuracy
 0005:021AA5F4       ServerEvent_OHKOCheck
 0005:021AA6B4       ServerEvent_CheckDamageToRecover
 0005:021AA710       ServerEvent_ApplyDamageToRecover
 0005:021AA750       ServerEvent_CheckCritical
 0005:021AA804       ServerEvent_CalcRecoil
 0005:021AA928       ServerEvent_EquipItem
 0005:021AA958       ServerEvent_EquipTempItem
 0005:021AA994       ServerEvent_CheckMoveDamageEffectiveness
 0005:021AAA64       ServerControl_CheckFloating
 0005:021AAA8C       ServerEvent_CheckFloating
 0005:021AAB08       j_j_Condition_CheckFloating
 0005:021AAB0C       j_Condition_CheckFloating
 0005:021AAB18       ServerDisplay_FloatingImmuneToMove
 0005:021AAB60       ServerEvent_FloatingImmuneToMove
 0005:021AAB90       ServerEvent_CheckDamageEffectiveness
 0005:021AAC2C       j_j_Condition_CheckUnaffectedByType
 0005:021AAC30       j_Condition_CheckUnaffectedByType
 0005:021AAC3C       ServerControl_ViewEffect
 0005:021AACEC       ServerEvent_DecrementPP
 0005:021AAD38       ServerEvent_CheckMultihitHits
 0005:021AADE4       ServerEvent_GetMovePower
 0005:021AAE88       ServerEvent_CheckSimpleDamageEnabled
 0005:021AAECC       ServerEvent_GetAttackPower
 0005:021AAFCC       ServerEvent_GetTargetDefenses
 0005:021AB144       ServerEvent_SameTypeAttackBonus
 0005:021AB1BC       ServerEvent_GetMoveFlinchChance
 0005:021AB24C       ServerEvent_CheckFlinch
 0005:021AB2D8       ServerEvent_FlinchFail
 0005:021AB308       ServerEvent_CheckStatStageChangeSuccess
 0005:021AB378       ServerEvent_StatStageChangeFail
 0005:021AB3B4       ServerEvent_StatStageChangeApplied
 0005:021AB400       ServerEvent_MoveStatStageChangeApplied
 0005:021AB44C       ServerEvent_CalcDrainAmount
 0005:021AB4F0       ServerEvent_AfterWeatherChange
 0005:021AB538       ServerEvent_CalcMoveHealAmount
 0005:021AB5AC       ServerEvent_CheckItemSet
 0005:021AB5F8       ServerEvent_ItemSetFailed
 0005:021AB628       ServerEvent_ItemSetDecide
 0005:021AB664       ServerEvent_ItemRewriteDone
 0005:021AB694       ServerEvent_ChangeAbilityBefore
 0005:021AB6D4       ServerEvent_ChangeAbilityAfter
 0005:021AB700       ServerEvent_CheckSideEffectParam
 0005:021AB750       ServerEvent_NotifyAirLock
 0005:021AB770       EffectivenessCounter_Clear
 0005:021AB77C       EffectivenessCounter_CountUp
 0005:021AB83C       EffectivenessCounter_GetNoEffectHits
 0005:021AB844       EffectivenessCounter_GetSuperEffectiveHits
 0005:021AB850       EffectivenessCounter_GetNotVeryEffectiveHits
 0005:021AB85C       EffectivenessCounter_GetOpponentNoEffectHits
 0005:021AB860       nullsub_31
 0005:021AB868       EffectivenessCounter_GetOpponentNotVeryEffectiveHits
 0005:021AB874       Handler_GetBattleMon
 0005:021AB880       Handler_GetExistFrontPokePos
 0005:021AB8A4       j_j_GetBattlePos_3
 0005:021AB8A8       j_GetBattlePos_3
 0005:021AB8B4       Handler_GetPokeLastPos
 0005:021AB8C4       Handler_GetExistPokeID
 0005:021AB8D4       Handler_GetAllOpponentFrontPokeID
 0005:021AB92C       Handler_SimulationEffectivenessCore
 0005:021AB994       Handler_SimulationDamage
 0005:021ABA44       Handler_IsSimulationMode
 0005:021ABA84       Handler_GetMyBenchindex
 0005:021ABAA4       Handler_GetFightEnableBenchPokeNum
 0005:021ABACC       Handler_CheckReservedMemberChangeAction
 0005:021ABAE8       Handler_ExpandPokeID
 0005:021ABB4C       Handler_GetPartyData
 0005:021ABB60       Handler_GetAllyPartyData
 0005:021ABB90       Handler_PokeIDToPokePos
 0005:021ABBA0       Handler_PokePosToPokeID
 0005:021ABBB0       Handler_ReqMoveTargetAuto
 0005:021ABBCC       Handler_GetThisTurnAction
 0005:021ABC2C       Handler_IsMyActionOrderLast
 0005:021ABC94       Handler_GetPrevUsedMove
 0005:021ABCA0       Handler_GetTempWork
 0005:021ABCAC       Handler_GetMoveRecord
 0005:021ABCB0       Handler_GetFaintRecord
 0005:021ABCB8       Handler_GetTurnCount
 0005:021ABCC0       Handler_GetSwitchCount
 0005:021ABCCC       Handler_DoesBattleMonExist
 0005:021ABCDC       Handler_GetBattleStyle
 0005:021ABCE8       Handler_GetBattleType
 0005:021ABCF4       Handler_GetBattleTerrain
 0005:021ABD00       Handler_GetFrontPosNum
 0005:021ABD0C       Handler_CheckEvolution
 0005:021ABD48       Handler_CalculateSpeed
 0005:021ABD50       Handler_CalcSpeedRank
 0005:021ABDB4       Handler_CheckFloating
 0005:021ABDCC       Handler_CheckItemUsable
 0005:021ABE08       Handler_GetWeather
 0005:021ABE10       Handler_IsTargetInRange
 0005:021ABE38       Handler_GetDebugFlag
 0005:021ABE44       Handler_IsSideEffectActive
 0005:021ABE50       Handler_GetSideConditionCount
 0005:021ABE64       j_j_BattleSideStatus_GetCount
 0005:021ABE68       j_BattleSideStatus_GetCount
 0005:021ABE74       Handler_IsPosEffectActive
 0005:021ABE80       Handler_GetAllyClientID
 0005:021ABE8C       Handler_IsMonSwitchOutInterrupted
 0005:021ABE9C       Handler_AddSwitchOutInterrupt
 0005:021ABEB8       Handler_IsHiding
 0005:021ABEC8       Handler_IsSkyDropUser
 0005:021ABEF4       Handler_IsMonInSkyDrop
 0005:021ABF20       Handler_GetWeight
 0005:021ABF4C       j_wazaSerial_Inc
 0005:021ABF54       Handler_CheckMatchup
 0005:021ABF5C       Handler_SetMoveEffectIndex
 0005:021ABF68       Handler_AddBonusMoney
 0005:021ABF88       Handler_SetDoubleMoney
 0005:021ABFB4       Handler_AddMagicCoatAction
 0005:021ABFDC       j_j_PosPoke_GetPokeExistPos_15
 0005:021ABFE0       j_PosPoke_GetPokeExistPos_15
 0005:021ABFEC       Handler_SkyDropStart
 0005:021AC014       Handler_SkyDropRelease
 0005:021AC02C       Handler_UseHeldItem
 0005:021AC050       Handler_AbilityUrge
 0005:021AC058       j_BattleResultJudge_JudgeWinSide
 0005:021AC060       j_Handler_RecordRevivedPoke
 0005:021AC068       Handler_ResetRevivedPokeCount
 0005:021AC074       Handler_RecordRevivedPoke
 0005:021AC0B4       Handler_IsPosOpenForRevivedMon
 0005:021AC0F8       j_j_PosPoke_GetClientEmptyPos_1
 0005:021AC0FC       j_PosPoke_GetClientEmptyPos_1
 0005:021AC108       PSetStack_Init
 0005:021AC11C       PSetStack_Push
 0005:021AC138       PSetStack_Pop
 0005:021AC154       psetstack_setup
 0005:021AC320       j_j_PokeSet_Clear_7
 0005:021AC324       j_PokeSet_Clear_7
 0005:021AC330       j_j_PokeSet_Clear_8
 0005:021AC334       j_PokeSet_Clear_8
 0005:021AC340       j_j_PokeSet_Clear_9
 0005:021AC344       j_PokeSet_Clear_9
 0005:021AC350       j_j_PokeSet_Clear_10
 0005:021AC354       j_PokeSet_Clear_10
 0005:021AC360       j_j_PokeSet_Clear_0
 0005:021AC364       j_PokeSet_Clear_0
 0005:021AC370       j_j_PokeSet_Clear_1
 0005:021AC374       j_PokeSet_Clear_1
 0005:021AC380       j_j_PokeSet_Clear_11
 0005:021AC384       j_PokeSet_Clear_11
 0005:021AC390       BattleHandler_StrClear
 0005:021AC3A8       BattleHandler_StrIsEnabled
 0005:021AC3B8       BattleHandler_StrSetup
 0005:021AC3E0       BattleHandler_AddArg
 0005:021AC40C       BattleHandler_AddSoundEffect
 0005:021AC424       BattleHandler_PushWork
 0005:021AC434       BattleHandler_PushRun
 0005:021AC448       BattleHandler_PopWork
 0005:021AC464       BattleHandler_Result
 0005:021AC490       j_BattleHandler_Result
 0005:021AC498       BattleHandler_Execute
 0005:021AC504       jpt_21AC502
 0005:021AC7DC       def_21AC502
 0005:021AC7EC       BattleHandler_UseHeldItemAnimation
 0005:021AC82C       j_j_DoesBattleMonExist_0
 0005:021AC830       j_DoesBattleMonExist_0
 0005:021AC83C       BattleHandler_AbilityPopupAdd
 0005:021AC87C       j_j_DoesBattleMonExist_1
 0005:021AC880       j_DoesBattleMonExist_1
 0005:021AC88C       BattleHandler_AbilityPopupRemove
 0005:021AC8AC       BattleHandler_RecoverHP
 0005:021AC964       BattleHandler_Drain
 0005:021AC9C8       j_j_DoesBattleMonExist_2
 0005:021AC9CC       j_DoesBattleMonExist_2
 0005:021AC9D8       BattleHandler_Damage
 0005:021ACA94       j_j_PosPoke_IsExist_1
 0005:021ACA98       j_PosPoke_IsExist_1
 0005:021ACAA4       BattleHandler_ChangeHP
 0005:021ACB14       j_j_DoesBattleMonExist_3
 0005:021ACB18       j_DoesBattleMonExist_3
 0005:021ACB24       BattleHandler_RestorePP
 0005:021ACB90       BattleHandler_DecrementPP
 0005:021ACBE8       BattleHandler_CureCondition
 0005:021ACCE8       j_j_Condition_MakeDefaultCureMessage
 0005:021ACCEC       j_Condition_MakeDefaultCureMessage
 0005:021ACCF8       BattleHandler_AddCondition
 0005:021ACDC0       j_j_PosPoke_IsExist_2
 0005:021ACDC4       j_PosPoke_IsExist_2
 0005:021ACDD0       BattleHandler_ChangeStatStage
 0005:021ACEF4       j_j_PosPoke_IsExist_3
 0005:021ACEF8       j_PosPoke_IsExist_3
 0005:021ACF04       j_j_PosPoke_IsExist_4
 0005:021ACF08       j_PosPoke_IsExist_4
 0005:021ACF14       BattleHandler_SetStatStage
 0005:021ACFB8       j_j_PosPoke_IsExist_5
 0005:021ACFBC       j_PosPoke_IsExist_5
 0005:021ACFC8       BattleHandler_RestoreStatStage
 0005:021ACFFC       BattleHandler_ResetStatStage
 0005:021AD048       BattleHandler_SetStat
 0005:021AD140       j_j_PosPoke_IsExist_6
 0005:021AD144       j_PosPoke_IsExist_6
 0005:021AD150       BattleHandler_Faint
 0005:021AD19C       j_j_PosPoke_IsExist_7
 0005:021AD1A0       j_PosPoke_IsExist_7
 0005:021AD1AC       BattleHandler_ChangeType
 0005:021AD234       j_j_PosPoke_IsExist_0
 0005:021AD238       j_PosPoke_IsExist_0
 0005:021AD244       j_j_IsArceus
 0005:021AD248       j_IsArceus
 0005:021AD254       BattleHandler_Message
 0005:021AD2A8       BattleHandler_SetTurnFlag
 0005:021AD2D0       BattleHandler_ResetTurnFlag
 0005:021AD2F8       BattleHandler_SetConditionFlag
 0005:021AD324       BattleHandler_ResetConditionFlag
 0005:021AD350       BattleHandler_AddSideEffect
 0005:021AD398       j_j_SideEvent_AddItem
 0005:021AD39C       j_SideEvent_AddItem
 0005:021AD3A8       BattleHandler_RemoveSideEffectCore
 0005:021AD408       j_j_SideEvent_RemoveItem
 0005:021AD40C       j_SideEvent_RemoveItem
 0005:021AD418       BattleHandler_AddFieldEffect
 0005:021AD444       BattleHandler_RemoveFieldEffect
 0005:021AD464       BattleHandler_ChangeWeather
 0005:021AD520       BattleHandler_SetString
 0005:021AD5A4       BattleHandler_AddPosEffect
 0005:021AD5D0       j_j_PosEffectEvent_AddItem
 0005:021AD5D4       j_PosEffectEvent_AddItem
 0005:021AD5E0       BattleHandler_ChangeAbility
 0005:021AD728       j_j_Tables_IsAbilityMultitype
 0005:021AD72C       j_Tables_IsAbilityMultitype
 0005:021AD738       BattleHandler_SetHeldItem
 0005:021AD840       BattleHandler_SwapItem
 0005:021AD94C       BattleHandler_CheckHeldItem
 0005:021AD968       BattleHandler_UseHeldItem
 0005:021AD9BC       BattleHandler_ForceUseHeldItem
 0005:021ADA4C       BattleHandler_ConsumeItem
 0005:021ADA8C       BattleHandler_UpdateMove
 0005:021ADACC       BattleHandler_SetCounter
 0005:021ADAEC       BattleHandler_DelayMoveDamage
 0005:021ADC38       j_j_PokeSet_Clear_12
 0005:021ADC3C       j_PokeSet_Clear_12
 0005:021ADC48       j_j_PokeSet_Clear_13
 0005:021ADC4C       j_PokeSet_Clear_13
 0005:021ADC58       j_j_PokeSet_Add_18
 0005:021ADC5C       j_PokeSet_Add_18
 0005:021ADC68       j_j_PokeSet_SetDefaultTargetCount_0
 0005:021ADC6C       j_PokeSet_SetDefaultTargetCount_0
 0005:021ADC78       j_j_PokeSet_RemoveDisablePoke_1
 0005:021ADC7C       j_PokeSet_RemoveDisablePoke_1
 0005:021ADC88       j_j_PokeSet_IsRemovedAll_0
 0005:021ADC8C       j_PokeSet_IsRemovedAll_0
 0005:021ADC98       j_j_PokeSet_IsRemovedAll_4
 0005:021ADC9C       j_PokeSet_IsRemovedAll_4
 0005:021ADCA8       BattleHandler_QuitBattle
 0005:021ADCD8       BattleHandler_Switch
 0005:021ADD50       BattleHandler_BatonPass
 0005:021ADDB8       j_j_PosPoke_GetPokeExistPos_8
 0005:021ADDBC       j_PosPoke_GetPokeExistPos_8
 0005:021ADDC8       BattleHandler_Flinch
 0005:021ADDF0       BattleHandler_Revive
 0005:021ADE68       BattleHandler_SetWeight
 0005:021ADE98       BattleHandler_ForceSwitch
 0005:021ADEF0       BattleHandler_InterruptAction
 0005:021ADF14       BattleHandler_InterruptMove
 0005:021ADF2C       BattleHandler_SendLast
 0005:021ADF50       BattleHandler_SwapPoke
 0005:021ADFFC       BattleHandler_Transform
 0005:021AE0F0       BattleHandler_IllusionBreak
 0005:021AE13C       j_j_PosPoke_IsExist_10
 0005:021AE140       j_PosPoke_IsExist_10
 0005:021AE14C       BattleHandler_GravityCheck
 0005:021AE21C       BattleHandler_CancelSemiInvuln
 0005:021AE254       BattleHandler_AddAnimation
 0005:021AE290       BattleHandler_RemoveMessageWindow
 0005:021AE2A0       BattleHandler_ChangeForm
 0005:021AE31C       BattleHandler_SetAnimationID
 0005:021AE32C       BattleHandler_PlayAnimation
 0005:021AE36C       ServerFlowSub_RegisterTargets
 0005:021AE3B6       jpt_21AE3B4
 0005:021AE3BE       def_21AE3B4
 0005:021AE440       j_PokeSet_Clear_14
 0005:021AE450       j_PokeSet_Get_14
 0005:021AE460       j_PosPoke_GetPokeLastPos_0
 0005:021AE464       j_PosPoke_GetPokeLastPos
 0005:021AE470       SelectMoveTargets_Singles
 0005:021AE4A4       jpt_21AE4A2
 0005:021AE546       def_21AE4A2
 0005:021AE54C       j_PokeSet_Add_2
 0005:021AE55C       j_j_PokeSet_Add_4
 0005:021AE560       j_PokeSet_Add_4
 0005:021AE56C       j_j_PokeSet_Add_1
 0005:021AE570       j_PokeSet_Add_1
 0005:021AE57C       j_j_PokeSet_Add_3
 0005:021AE580       j_PokeSet_Add_3
 0005:021AE58C       j_j_PokeSet_Add_5
 0005:021AE590       j_PokeSet_Add_5
 0005:021AE5D0       SelectMoveTargets_Doubles
 0005:021AE618       def_21AE8BA
 0005:021AE61A       jpt_21AE618
 0005:021AE79C       j_j_PokeSet_Add_11
 0005:021AE7A0       j_PokeSet_Add_11
 0005:021AE7AC       j_j_PokeSet_Add_12
 0005:021AE7B0       j_PokeSet_Add_12
 0005:021AE7BC       j_j_PokeSet_Add_8
 0005:021AE7C0       j_PokeSet_Add_8
 0005:021AE7CC       j_j_PokeSet_Add_9
 0005:021AE7D0       j_PokeSet_Add_9
 0005:021AE7DC       j_j_PokeSet_Add_10
 0005:021AE7E0       j_PokeSet_Add_10
 0005:021AE7EC       j_j_PokeSet_Add_14
 0005:021AE7F0       j_PokeSet_Add_14
 0005:021AE7FC       j_j_PokeSet_Add_15
 0005:021AE800       j_PokeSet_Add_15
 0005:021AE80C       j_j_PokeSet_Add_16
 0005:021AE810       j_PokeSet_Add_16
 0005:021AE81C       j_j_PokeSet_Add_17
 0005:021AE820       j_PokeSet_Add_17
 0005:021AE82C       j_j_PokeSet_Add_13
 0005:021AE830       j_PokeSet_Add_13
 0005:021AE83C       j_j_PokeSet_Add_7
 0005:021AE840       j_PokeSet_Add_7
 0005:021AE84C       j_j_PokeSet_Add_6
 0005:021AE850       j_PokeSet_Add_6
 0005:021AE85C       j_j_PokeSet_Add_32
 0005:021AE860       j_PokeSet_Add_32
 0005:021AE86C       SelectMoveTargets_Triples
 0005:021AE8BC       jpt_21AE8BA
 0005:021AEA90       j_j_PokeSet_Add_31
 0005:021AEA94       j_PokeSet_Add_31
 0005:021AEAA0       j_j_PokeSet_Add_29
 0005:021AEAA4       j_PokeSet_Add_29
 0005:021AEAB0       j_j_PokeSet_Add_30
 0005:021AEAB4       j_PokeSet_Add_30
 0005:021AEAC0       j_j_PokeSet_Add_21
 0005:021AEAC4       j_PokeSet_Add_21
 0005:021AEAD0       j_j_PokeSet_Add_22
 0005:021AEAD4       j_PokeSet_Add_22
 0005:021AEAE0       j_j_PokeSet_Add_20
 0005:021AEAE4       j_PokeSet_Add_20
 0005:021AEAF0       j_j_PokeSet_Add_23
 0005:021AEAF4       j_PokeSet_Add_23
 0005:021AEB00       j_j_PokeSet_Add_24
 0005:021AEB04       j_PokeSet_Add_24
 0005:021AEB10       j_j_PokeSet_Add_25
 0005:021AEB14       j_PokeSet_Add_25
 0005:021AEB20       j_j_PokeSet_Add_26
 0005:021AEB24       j_PokeSet_Add_26
 0005:021AEB30       j_j_PokeSet_Add_27
 0005:021AEB34       j_PokeSet_Add_27
 0005:021AEB40       j_j_PokeSet_Add_28
 0005:021AEB44       j_PokeSet_Add_28
 0005:021AEB50       correctTargetDead
 0005:021AECAC       j_PokeSet_GetCount_11
 0005:021AECBC       j_PokeSet_Get_13
 0005:021AECCC       j_PokeSet_Remove_11
 0005:021AECDC       j_PokeSet_Add_19
 0005:021AECEC       GetOpponentPokemon
 0005:021AED1C       GetNextPokemon
 0005:021AED4C       ServerControl_RedirectTarget
 0005:021AED8C       ServerEvent_DecideTarget
 0005:021AEDEC       ServerEvent_RedirectTarget
 0005:021AEE4C       AddExpAndEVs
 0005:021AF10C       ScaleExpGainedByLevel
 0005:021AF1AC       AddEVs
 0005:021AF2B0       jpt_21AF2AE
 0005:021AF2D2       def_21AF2AE
 0005:021AF2EC       ServerControl_UseTrainerItem
 0005:021AF5EC       j_j_PosPoke_GetPokeExistPos_14
 0005:021AF5F0       j_PosPoke_GetPokeExistPos_14
 0005:021AF5FC       ServerControl_ThrowBallRoot
 0005:021AF6F0       CalcCapturePokemon
 0005:021AF7F2       jpt_21AF7F0
 0005:021AF824       def_21AF7F0
 0005:021AF8B0       GetDoublesGrassCatchRate
 0005:021AF904       GetBallCaptureRatio
 0005:021AF91C       jpt_21AF91A
 0005:021AFA4A       def_21AF91A
 0005:021AFA54       j_j_Tables_IsDuskBallBoostedTerrain
 0005:021AFA58       j_Tables_IsDuskBallBoostedTerrain
 0005:021AFA64       CheckCriticalCapture
 0005:021AFAEC       ItemEffect_SleepRecover
 0005:021AFAFC       ItemEffect_PoisonRecover
 0005:021AFB0C       ItemEffect_BurnRecover
 0005:021AFB1C       ItemEffect_FreezeRecover
 0005:021AFB2C       ItemEffect_ParalysisRecover
 0005:021AFB3C       ItemEffect_ConfusionRecover
 0005:021AFB4C       ItemEffect_AttractRecover
 0005:021AFB5C       ItemEffect_StatusGuard
 0005:021AFBB4       j_j_SideEvent_AddItem_0
 0005:021AFBB8       j_SideEvent_AddItem_0
 0005:021AFBC4       ItemEffect_Revive
 0005:021AFC54       ItemEffect_AttackRaise
 0005:021AFC64       ItemEffect_DefenseRaise
 0005:021AFC74       ItemEffect_SpecialAttackRaise
 0005:021AFC84       ItemEffect_SpecialDefenseRaise
 0005:021AFC94       ItemEffect_SpeedRaise
 0005:021AFCA4       ItemEffect_AccuracyRaise
 0005:021AFCB4       ItemEffect_CriticalRaise
 0005:021AFD34       ItemEffect_PPRecover
 0005:021AFDD0       ItemEffect_RecoverAllPP
 0005:021AFE7C       ItemEffect_HPRecover
 0005:021AFF0C       ItemEffect_Cure_Common
 0005:021AFF54       ItemEffect_MentalHerb
 0005:021AFFD4       j_j_PosPoke_IsExist_9
 0005:021AFFD8       j_PosPoke_IsExist_9
 0005:021AFFE4       j_j_Tables_GetMentalStatusID
 0005:021AFFE8       j_Tables_GetMentalStatusID
 0005:021AFFF4       ItemEffect_StatStage_Common
 0005:021B0058       j_j_PosPoke_GetPokeExistPos_13
 0005:021B005C       j_PosPoke_GetPokeExistPos_13
 0005:021B0068       WonderLauncher_ItemUrge
 0005:021B00B4       j_j_Tables_IsItemUrgeFailItem
 0005:021B00B8       j_Tables_IsItemUrgeFailItem
 0005:021B00C4       WonderLauncher_AbilityUrge
 0005:021B0114       WonderLauncher_ItemDrop
 0005:021B01B0       WonderLauncher_ResetStatStage
 0005:021B02AC       GetNumFaintedMonsInParty
 0005:021B02E0       AreAllPartyMonsFainted
 0005:021B03A0       jpt_21B039E
 0005:021B05D6       def_21B039E
 0005:021B05F4       BattleResultJudge_JudgeWinSide
 0005:021B070C       j_j_FaintRecord_GetLastFaintedPokeID
 0005:021B0710       j_FaintRecord_GetLastFaintedPokeID
 0005:021B071C       BattleResultJudge_JudgeWinSideByRemainingHPRatio
 0005:021B07B4       BattleResultJudge_CalcHPRatio
 0005:021B0854       EffectivenessRecorder_Init
 0005:021B0864       EffectivenessRecorder_ReplaceEffectiveness
 0005:021B086C       EffectivenessRecorder_GetValue
 0005:021B087C       HEManager_Init
 0005:021B088C       HEManager_PushState
 0005:021B08CC       HEManager_PushStateUseItem
 0005:021B0910       HEManager_PopState
 0005:021B0914       HEManager_GetUseItemNo
 0005:021B0920       HEManager_IsUsed
 0005:021B0928       HEManager_SetResult
 0005:021B0950       HEManager_GetPrevResult
 0005:021B0958       HEManager_GetTotalResult
 0005:021B0A28       HEManager_PopWork
 0005:021B0A5C       scque_put1byte
 0005:021B0A8C       scque_read1byte
 0005:021B0A98       scque_put2byte
 0005:021B0AD4       scque_read2byte
 0005:021B0AF0       scque_put3byte
 0005:021B0B38       scque_read3byte
 0005:021B0B58       scque_put4byte
 0005:021B0BAC       scque_read4byte
 0005:021B0BD0       put_core
 0005:021B0BFE       jpt_21B0BFC
 0005:021B10AE       def_21B0BFC
 0005:021B10B4       read_core
 0005:021B10CC       def_21B10D6
 0005:021B10D8       jpt_21B10D6
 0005:021B1474       ServerDisplay_AddCommon
 0005:021B14C0       SCQUE_RESERVE_Pos
 0005:021B152C       SCQUE_PUT_ReservedPos
 0005:021B15A4       SCQUE_Read
 0005:021B1600       j_scque_put1byte
 0005:021B1608       j_scque_read1byte
 0005:021B1610       ServerDisplay_AddMessageImpl
 0005:021B1670       read_core_msg
 0005:021B16B0       DebugAICtrl_Init
 0005:021B16B4       BattleClient_Init
 0005:021B18D0       BattleClient_Free
 0005:021B19B8       BattleClient_IsVsRecorderPlayback
 0005:021B19D0       BattleClient_IsChapterSkipMode
 0005:021B1A3A       jpt_21B1A38
 0005:021B1BFE       def_21B1A38
 0005:021B1C10       BattleClient_Main_ChapterSkip
 0005:021B1C34       jpt_21B1C32
 0005:021B1D32       def_21B1C32
 0005:021B1FC8       jpt_21B1FC6
 0005:021B2038       def_21B1FC6
 0005:021B20C0       BattleClient_CmdLimitStart
 0005:021B20E4       BattleClient_CheckIfOverCmdLimit
 0005:021B2114       BattleClient_CheckActionSelectForceQuit
 0005:021B2138       BattleClient_CmdLimitEnd
 0005:021B2150       BattleClient_SetupActionSelectStartStr
 0005:021B21A8       BattleClient_ActionSelect_SetSubProc
 0005:021B21B8       BattleClient_ActionSelect_CallSubProc
 0005:021B21C8       GetUISubProcSeq
 0005:021B2258       BattleClient_SubProc_UI_SelectAction
 0005:021B22CA       jpt_21B22C8
 0005:021B23E6       def_21B22C8
 0005:021B2446       jpt_21B2444
 0005:021B2574       def_21B2444
 0005:021B28DA       jpt_21B28D8
 0005:021B2D28       def_21B28D8
 0005:021B2E36       jpt_21B2E34
 0005:021B2FC4       def_21B2E34
 0005:021B301C       jpt_21B301A
 0005:021B30D4       def_21B301A
 0005:021B315C       jpt_21B315A
 0005:021B326C       def_21B315A
 0005:021B3270       SubProc_Rec_SelectAction
 0005:021B328E       jpt_21B328C
 0005:021B3460       def_21B328C
 0005:021B3480       SetNullActionRecPlay
 0005:021B34A0       BattleClient_ActionSelect_Start
 0005:021B354C       BattleClient_ActionSelect_StartMessage
 0005:021B3560       BattleClient_ActionForceQuit
 0005:021B3668       BattleClient_ActionSelect_Root
 0005:021B3682       jpt_21B3680
 0005:021B378C       jpt_21B378A
 0005:021B3936       def_21B3680
 0005:021B3970       j_j_PokeSelectResult_Pop
 0005:021B3974       j_PokeSelectResult_Pop
 0005:021B399A       jpt_21B3998
 0005:021B3A7C       def_21B3998
 0005:021B3B86       jpt_21B3B84
 0005:021B3C16       def_21B3B84
 0005:021B3C40       BattleClient_ActionSelectFight
 0005:021B3C5A       jpt_21B3C58
 0005:021B3CD6       def_21B3C58
 0005:021B3EF8       BattleClient_ActionViewMoveInfo
 0005:021B3F6C       BattleClient_ActionSwitchPokemon
 0005:021B4044       j_PokeSelectResult_IsCancel
 0005:021B4054       j_PokeSelectResult_GetLast
 0005:021B4064       BattleClient_ActionSelectItem
 0005:021B41A8       BattleClient_ActionSelectChooseSwitchPoke
 0005:021B4244       IsPokeBallTargetHiding
 0005:021B42C0       BattleClient_ActionSelectEscape
 0005:021B42DC       jpt_21B42DA
 0005:021B444C       def_21B42DA
 0005:021B4468       BattleClient_ActionSelectCheckFinish
 0005:021B4538       BattleClient_ActionSelectFinish
 0005:021B45A8       selItemWork_Init
 0005:021B45C4       selItemWork_Reserve
 0005:021B4600       selItemWork_Restore
 0005:021B4640       selItemWork_Quit
 0005:021B46B8       AutoSelectAction
 0005:021B476C       CheckForSelectableMove
 0005:021B47D4       SetStruggleAction
 0005:021B47F8       IsUnselectableMove
 0005:021B4A64       StoreSelectableMoveFlag
 0005:021B4AE4       CanMonUseHeldItem
 0005:021B4B1C       CanMonSwitch
 0005:021B4B60       IsForbidEscape
 0005:021B4BFC       IsMonTrapped
 0005:021B4D0C       DoesMonHaveShadowTag
 0005:021B4D24       IsMonTrappedByArenaTrap
 0005:021B4DD4       IsMonSteelType
 0005:021B4DEC       SwitchAI_InitWork
 0005:021B4E04       SwitchAI_CheckReserve
 0005:021B4E28       SwitchAI_SetReserve
 0005:021B4E38       SwitchAI_Main
 0005:021B4F98       SwitchAI_DetermineOpponent
 0005:021B5010       ShouldSwitchIfPerishSongLastTurn
 0005:021B504C       ShouldSwitchIfWonderGuard
 0005:021B50DC       ShouldSwitchIfNoEffectiveMoves
 0005:021B50E8       vtbl
 0005:021B51EC       ShouldSwitchIfChoicedIntoIneffectiveMove
 0005:021B52FC       publics
 0005:021B5344       ShouldSwitchIfTypeAbsorbingAbility
 0005:021B549C       ShouldSwitchIfAsleepWithNaturalCure
 0005:021B5554       FinalSwitchChecks
 0005:021B5760       CheckMonsForTypeAbsorbingAbility
 0005:021B57D8       CheckIfMonToSwitchToWithSEMove
 0005:021B58C0       DoesMonHaveSuperEffectiveMove
 0005:021B59EC       AISelectAction
 0005:021B5A06       jpt_21B5A04
 0005:021B5A46       def_21B5A04
 0005:021B5C2C       GetNumBattleReadyPartyMons
 0005:021B5C8C       PickBestMonToSwitchInto
 0005:021B5D26       jpt_21B5D24
 0005:021B5D46       def_21B5D24
 0005:021B5DBC       SetupPokeSelectParam
 0005:021B5DE8       j_j_PokeSelectParam_Init
 0005:021B5DEC       j_PokeSelectParam_Init
 0005:021B5DF8       j_j_PokeSelectParam_SetProhibitFighting
 0005:021B5DFC       j_PokeSelectParam_SetProhibitFighting
 0005:021B5E08       j_j_PokeSelectResult_Init
 0005:021B5E0C       j_PokeSelectResult_Init
 0005:021B5E18       StorePokeSelectResult
 0005:021B5E5C       StorePokeSelectResult_ForceQuit
 0005:021B5F24       StoreMyChangePokePos
 0005:021B5FE4       SubProc_UI_SelectPokemonForCover
 0005:021B5FF0       SubProc_UI_SelectPokemonForChange
 0005:021B5FFC       SubProc_AI_SelectPokemon
 0005:021B612C       SelectPokemonUI_Core
 0005:021B614A       jpt_21B6148
 0005:021B62CE       def_21B6148
 0005:021B6368       SubProc_UI_ConfirmSwitchMode
 0005:021B6384       jpt_21B6382
 0005:021B64C6       def_21B6382
 0005:021B64CC       j_j_PokeSelectResult_IsCancel_0
 0005:021B64D0       j_PokeSelectResult_IsCancel_0
 0005:021B64DC       j_j_PokeSelectResult_GetLast_0
 0005:021B64E0       j_PokeSelectResult_GetLast_0
 0005:021B64EC       SubProc_UI_RecordData
 0005:021B652C       SubProc_Rec_ExitCommTrainer
 0005:021B6540       SubProc_ExitCommTrainer
 0005:021B6558       jpt_21B6556
 0005:021B6648       def_21B6556
 0005:021B6654       expandServerResult
 0005:021B66AC       SubProc_UI_ExitForNPC
 0005:021B66C0       SubProc_ExitForNPC
 0005:021B6AD8       SubProc_UI_ExitForSubwayTrainer
 0005:021B6AEC       SubProc_ExitForSubwayTrainer
 0005:021B6B06       jpt_21B6B04
 0005:021B6C3A       def_21B6B04
 0005:021B6C48       SetupSubwayTrainerMessage
 0005:021B6CD8       SetBonusMoneyGetString
 0005:021B6D4C       SubProc_UI_LoseWild
 0005:021B6D64       jpt_21B6D62
 0005:021B6DF8       def_21B6D62
 0005:021B6E04       SubProc_UI_WinWild
 0005:021B6E4C       SubProc_Rec_ServerCmd
 0005:021B6E60       SubProc_UI_ServerCmd
 0005:021B6E7C       jpt_21B6E7A
 0005:021B6FAE       def_21B6E7A
 0005:021B6FBC       ServerCommand_SwitchOutMessage
 0005:021B702C       GetSwitchOutStrID
 0005:021B7098       ServerCommand_SwitchOut
 0005:021B70E0       ServerCommand_SwitchIn_0
 0005:021B71F8       GetMemberPutStrID
 0005:021B7270       ServerCommand_MessageStandard
 0005:021B72B8       ServerCommand_MessageStandardSE
 0005:021B7314       ServerCommand_SetMessage
 0005:021B735C       ServerCommand_SetMessageSE
 0005:021B73B8       ServerCommand_MoveMessage
 0005:021B7404       GetMoveTargetData
 0005:021B7434       ServerCommand_MoveAnim
 0005:021B74C0       ServerCommand_Hide
 0005:021B7510       ServerCommand_MoveDamage
 0005:021B7560       ServerCommand_MoveDamage_MultiHit
 0005:021B75D8       ServerCommand_OHKOMove
 0005:021B7638       ServerCommand_StatusIcon
 0005:021B767C       ServerCommand_ConfusionDamage
 0005:021B7724       ServerCommand_Faint
 0005:021B7790       ServerCommand_Revive
 0005:021B77D4       ServerCommand_LowerStat
 0005:021B7840       ServerCommand_RaiseStat
 0005:021B78AC       ServerCommand_WeatherStart
 0005:021B792C       ServerCommand_WeatherEnd
 0005:021B7954       jpt_21B7952
 0005:021B796E       def_21B7952
 0005:021B799C       ServerCommand_SimpleHP
 0005:021B79E0       ServerCommand_UseItem
 0005:021B7B34       ServerCommand_Move
 0005:021B7B50       jpt_21B7B4E
 0005:021B7C3C       def_21B7B4E
 0005:021B7C48       ServerCommand_SubstituteCreate
 0005:021B7C80       ServerCommand_SubstituteDelete
 0005:021B7CE0       ServerCommand_Transform
 0005:021B7D64       ServerCommand_SubstituteDamage
 0005:021B7DC4       ServerCommand_PlayWinBGM
 0005:021B7DD0       ServerCommand_HideMessageWindow
 0005:021B7E58       ServerCommand_Experience
 0005:021B7EA4       jpt_21B7EA2
 0005:021B7F70       def_21B7EA2
 0005:021B80EC       ServerCommand_LearnMoveSeq
 0005:021B8112       jpt_21B8110
 0005:021B815C       def_21B8110
 0005:021B841C       ServerCommand_BallThrow
 0005:021B843A       jpt_21B8438
 0005:021B855E       def_21B8438
 0005:021B8690       ServerCommand_ChangeAbility_0
 0005:021B8724       ServerCommand_SwapAbility
 0005:021B878A       jpt_21B8788
 0005:021B8880       def_21B8788
 0005:021B8890       ServerCommand_IllusionBreak
 0005:021B88F4       ServerCommand_SimpleAnim
 0005:021B892C       ServerCommand_AnimByPos
 0005:021B899C       j_j_IsEffectDisableType
 0005:021B89A0       j_IsEffectDisableType
 0005:021B89AC       ServerCommand_AnimByVector
 0005:021B8A0C       ServerCommand_ChangeForm
 0005:021B8A74       ServerCommand_AbilityPopupIn
 0005:021B8ACC       ServerCommand_AbilityPopupOut
 0005:021B8B10       ServerCommand_SubtractHP
 0005:021B8B30       ServerCommand_AddHP
 0005:021B8B50       ServerCommand_SubtractPP
 0005:021B8B78       ServerCommand_SubtractPPOrg
 0005:021B8BA0       ServerCommand_MoveUsed
 0005:021B8BC0       ServerCommand_HPZero
 0005:021B8BD8       ServerCommand_AddPP
 0005:021B8BFC       ServerCommand_AddPPOrg
 0005:021B8C20       ServerCommand_StatStageUp
 0005:021B8C40       ServerCommand_StatStageDown
 0005:021B8C60       ServerCommand_StatStageSetAll
 0005:021B8CD8       ServerCommand_StatStageRecover
 0005:021B8CF0       ServerCommand_StatStageReset
 0005:021B8D08       ServerCommand_AddCritStage
 0005:021B8D24       ServerCommand_SetMoveCondition
 0005:021B8D44       ServerCommand_CureStatusCondition
 0005:021B8D5C       ServerCommand_CureMoveCondition
 0005:021B8D78       ServerCommand_SwitchIn
 0005:021B8DCC       ServerCommand_ChangeType
 0005:021B8DEC       ServerCommand_MoveConditionTurnCheck
 0005:021B8E54       j_j_GetMoveConditionByTurnCheckOrder_0
 0005:021B8E58       j_GetMoveConditionByTurnCheckOrder_0
 0005:021B8E64       ServerCommand_ConsumeItem
 0005:021B8E84       ServerCommand_UpdateUsedMove
 0005:021B8EC0       ServerCommand_SetContinuationFlag
 0005:021B8EDC       ServerCommand_ResetContinuationFlag
 0005:021B8EF8       ServerCommand_SetTurnFlag
 0005:021B8F14       ServerCommand_ResetTurnFlag
 0005:021B8F30       ServerCommand_ChangeAbility
 0005:021B8F4C       ServerCommand_SetItem
 0005:021B8F6C       ServerCommand_UpdateMoveID
 0005:021B8FA0       ServerCommand_SwitchOutClear
 0005:021B8FB8       ServerCommand_AddFieldEffect
 0005:021B8FCC       ServerCommand_AddFieldEffectDepend
 0005:021B8FE0       ServerCommand_RemoveFieldEffectDepend
 0005:021B8FF4       ServerCommand_RemoveFieldEffect
 0005:021B9004       ServerCommand_SetPokeCounter
 0005:021B9024       ServerCommand_BatonPass
 0005:021B9050       ServerCommand_CreateSubstitute
 0005:021B9070       ServerCommand_RemoveSubstitute
 0005:021B90B4       ServerCommand_SetIllusion
 0005:021B90D4       ServerCommand_ClearConsumedItem
 0005:021B90EC       ServerCommand_CureMoveConditionDependPoke
 0005:021B910C       ServerCommand_AddMoveDamage
 0005:021B9140       ServerCommand_TurnCheck
 0005:021B9160       ServerCommand_TurnCheckField
 0005:021B9170       ServerCommand_SetRealStat
 0005:021B9194       ServerCommand_SetWeight
 0005:021B91B4       BattleClient_GetMyID
 0005:021B91C0       BattleClient_GetActParty
 0005:021B91C8       j_BattleField_GetWeatherCore
 0005:021B91F0       SetupAIBagItems
 0005:021B9218       AICheckItemUse
 0005:021B92C4       IsXItem
 0005:021B931C       IsStatusCureItem
 0005:021B9358       RecPlayer_Clear
 0005:021B93A0       RecPlayer_CheckBlackOut
 0005:021B93A8       RecPlayer_TurnIncReq
 0005:021B9424       RecPlayer_Quit
 0005:021B9A70       BtlNet_IsInitialized
 0005:021B9AB0       BtlNet_CheckError
 0005:021BA03C       slot
 0005:021BA5C4       BattleMon_Create
 0005:021BA73C       BattleMon_SetupBySrcData
 0005:021BA7C4       BattleMon_GetNumMoves
 0005:021BA89C       BattleMon_SetMovesAndPP
 0005:021BA8F4       MoveWork_UpdatePP
 0005:021BA990       MoveWork_ClearSurface
 0005:021BAA0C       MoveWork_ClearUsedFlag
 0005:021BAA1C       MoveWork_UpdateNumber
 0005:021BAA48       MoveCore_UpdateNumber
 0005:021BAA84       MoveCore_SetupByPP
 0005:021BAAF4       BattleMon_SetupBySrcDataBase
 0005:021BAB7C       BattleMon_ClearFormChange
 0005:021BABA4       BattleMon_ClearUsedMoveFlag
 0005:021BABDC       ClearCounter
 0005:021BABF8       BattleMon_Free
 0005:021BAC00       j_ResetStatStages
 0005:021BAC08       ResetStatStages
 0005:021BAC80       BattleMon_GetID
 0005:021BAC84       BattleMon_GetSpecies
 0005:021BAC88       BattleMon_GetMoveCount
 0005:021BAC90       Move_GetMoveCount
 0005:021BACB8       Move_CheckIfAllMovesUsed
 0005:021BACF4       Move_GetUsedMoveCount
 0005:021BAD00       Move_GetID
 0005:021BAD10       Move_GetOriginalID
 0005:021BAD20       Move_CheckIfUsed
 0005:021BAD34       Move_UpdateMoves
 0005:021BAD68       Move_GetIDAndPP
 0005:021BAD8C       Move_GetMissingPP
 0005:021BADA8       Move_GetMissingPPReal
 0005:021BADC4       Move_GetPP
 0005:021BADE0       Move_GetPPByID
 0005:021BAE18       Move_IsPPFull
 0005:021BAE48       Move_DecrementPP
 0005:021BAE80       Move_UpdatePP
 0005:021BAEB4       Move_IncrementPP
 0005:021BAEE0       Move_IncrementPP_Org
 0005:021BAF0C       Move_SetUsedFlag
 0005:021BAF74       Move_UpdateMoveID
 0005:021BAF90       Move_IsUsable
 0005:021BAFB8       Move_SearchIndex
 0005:021BAFE8       splitTypeCore
 0005:021BB03C       BattleMon_GetPokeType
 0005:021BB054       BattleMon_HasType
 0005:021BB084       BattleMon_GetSrcData
 0005:021BB088       BattleMon_SetIllusion
 0005:021BB094       BattleMon_RemoveIllusion
 0005:021BB0A4       BattleMon_GetViewSrcData
 0005:021BB0BC       BattleMon_SwitchDefensesForWonderRoom
 0005:021BB0E8       BattleMon_GetRealStat
 0005:021BB102       jpt_21BB100
 0005:021BB142       def_21BB100
 0005:021BB14C       BattleMon_CopyStats
 0005:021BB1B0       BattleMon_SetRealStat
 0005:021BB1CC       jpt_21BB1CA
 0005:021BB1F2       def_21BB1CA
 0005:021BB1F4       BattleMon_GetValue
 0005:021BB210       jpt_21BB20E
 0005:021BB306       def_21BB20E
 0005:021BB318       BattleMon_GetStatsForCritDamage
 0005:021BB336       jpt_21BB334
 0005:021BB380       BattleMon_GetHeldItem
 0005:021BB384       BattleMon_SetItem
 0005:021BB388       BattleMon_IsFullHP
 0005:021BB3A8       BattleMon_IsFainted
 0005:021BB3BC       BattleMon_CanBattle
 0005:021BB3E4       BattleMon_GetTurnCount
 0005:021BB3F0       BattleMon_GetTurnFlag
 0005:021BB41C       BattleMon_GetConditionFlag
 0005:021BB448       BattleMon_GetHideCondition
 0005:021BB470       BattleMon_IsHiding
 0005:021BB484       BattleMon_GetHPRatio
 0005:021BB4F4       BattleMon_GetStatStage
 0005:021BB50E       jpt_21BB50C
 0005:021BB54E       def_21BB50C
 0005:021BB554       BattleMon_IsStatChangeValid
 0005:021BB590       BattleMon_GetStatStageVolumeToMax
 0005:021BB5A8       BattleMon_AreStatsLowered
 0005:021BB600       BattleMon_StatStageUp
 0005:021BB610       jpt_21BB60E
 0005:021BB640       def_21BB60E
 0005:021BB678       BattleMon_StatStageDown
 0005:021BB688       jpt_21BB686
 0005:021BB6B8       def_21BB686
 0005:021BB6E8       BattleMon_StatStageSet
 0005:021BB6F8       jpt_21BB6F6
 0005:021BB730       def_21BB6F6
 0005:021BB73C       BattleMon_RecoverStatStages
 0005:021BB748       BattleMon_ResetStatStages
 0005:021BB754       BattleMon_GetCritStage
 0005:021BB778       BattleMon_AddCritStage
 0005:021BB7D0       BattleMon_SubtractHP
 0005:021BB7E4       BattleMon_AddHP
 0005:021BB7F8       BattleMon_ZeroHP
 0005:021BB800       TurnFlag_Set
 0005:021BB824       ConditionFlag_Set
 0005:021BB848       ConditionFlag_Clear
 0005:021BB874       SetMoveCondition
 0005:021BB8A4       MoveCondition_TurnCheck
 0005:021BB970       CheckWakeUp
 0005:021BB9E8       CheckConfusionSnapOut
 0005:021BBA30       CureStatusCondition
 0005:021BBA5C       CureDependentCondition
 0005:021BBA78       BattleMon_CureMoveCondition
 0005:021BBAA4       BattleMon_CureMoveConditionDependPoke
 0005:021BBAE8       BattleMon_GetStatus
 0005:021BBB04       BattleMon_CheckIfMoveCondition
 0005:021BBB18       BattleMon_GetConditionAffectedMove
 0005:021BBB54       BattleMon_GetMoveCondition
 0005:021BBB5C       GetConditiionTurnCount
 0005:021BBB64       Condition_CalcDamage
 0005:021BBB82       jpt_21BBB80
 0005:021BBBEE       def_21BBB80
 0005:021BBBF8       ClearMoveStatusWork
 0005:021BBC2C       BattleMon_SetAppearTurn
 0005:021BBC48       BattleMon_TurnCheck
 0005:021BBC80       Turnflag_Clear
 0005:021BBCAC       BattleMon_ClearForFainted
 0005:021BBD30       BattleMon_ClearForSwitchOut
 0005:021BBDC0       BattleMon_ClearForSwitchIn
 0005:021BBE08       BattleMon_CopyBatonPassParams
 0005:021BBEE0       j_j_Condition_CheckIfBatonPassInherited
 0005:021BBEE4       j_Condition_CheckIfBatonPassInherited
 0005:021BBEF0       BattleMon_ChangePokeType
 0005:021BBF10       BattleMon_ChangeAbility
 0005:021BBF18       BattleMon_ChangeForm
 0005:021BBF70       BattleMon_ConsumeItem
 0005:021BBF78       BattleMon_ClearConsumedItem
 0005:021BBF80       BattleMon_GetUsedItem
 0005:021BBF84       BattleMon_UpdateMoveProcessingResult
 0005:021BBFDC       BattleMon_GetConsecutiveMoveCount
 0005:021BBFE8       BattleMon_GetPreviousMoveID
 0005:021BBFF0       BattleMon_GetPreviousMoveType
 0005:021BBFF8       BattleMon_GetPreviousMove
 0005:021BC004       BattleMon_GetPrevTargetPos
 0005:021BC010       BattleMon_GetWasInBattleFlag
 0005:021BC018       BattleMon_SetWeight
 0005:021BC028       BattleMon_GetWeight
 0005:021BC034       MoveDamageRec_Init
 0005:021BC064       MoveDamageRec_ClearTurn
 0005:021BC088       MoveDamageRec_Add
 0005:021BC160       MoveDamageRec_GetCount
 0005:021BC180       MoveDamageRec_Get
 0005:021BC1E0       BattleMon_SetCount
 0005:021BC1EC       BattleMon_GetCounter
 0005:021BC1F8       BattleMon_AddExp
 0005:021BC3AC       GetExpForLv100
 0005:021BC3C4       BattleMon_UpdateData
 0005:021BC43C       BattleMon_UpdatePP
 0005:021BC464       BattleMon_IsIllusionEnabled
 0005:021BC46C       BattleMon_IllusionBreak
 0005:021BC47C       BattleMon_SetSourceSpecies
 0005:021BC490       BattleMon_TransformSet
 0005:021BC594       BattleMon_TransformCheck
 0005:021BC59C       BattleMon_CreateSubstitute
 0005:021BC5B0       BattleMon_RemoveSubstitute
 0005:021BC5BC       BattleMon_IsSubstituteActive
 0005:021BC5D0       BattleMon_GetSubstituteHP
 0005:021BC5DC       BattleMon_AddSubstituteDamage
 0005:021BC604       BattleMon_ClearConfrontRecCount
 0005:021BC60C       BattleMon_SetConfrontRec
 0005:021BC644       BattleMon_GetConfrontRecCount
 0005:021BC64C       BattleMon_GetConfrontedPokeID
 0005:021BC664       BattleMon_SetCaptureBallID
 0005:021BC680       BattleMon_SetComboMoveData
 0005:021BC690       BattleMon_GetComboMoveData
 0005:021BC6B4       BattleMon_HasComboMovePartner
 0005:021BC6C8       BattleMon_ClearComboMoveData
 0005:021BC6E0       j_PokeParty_RecalcStats
 0005:021BC6EC       CheckHPDebug
 0005:021BC6FC       BattleEvent_InitSystem
 0005:021BC738       BattleEvent_StartTurn
 0005:021BC75C       BattleEvent_AddItem
 0005:021BC86C       BattleEvent_RemoveIsolatedItems
 0005:021BC890       BattleEventItem_Remove
 0005:021BC8E0       BattleEventItem_ConvertToIsolated
 0005:021BC8E8       BattleEventItem_IsIsolated
 0005:021BC8F8       BattleEventItem_GetSubID
 0005:021BC8FC       BattleEventItem_GetPokeID
 0005:021BC904       BattleEventItem_GetWorkValue
 0005:021BC90C       BattleEventItem_SetTempItemFlag
 0005:021BC918       BattleEventItem_SetRecallEnable
 0005:021BC92C       BattleEventItem_SetWorkValue
 0005:021BC934       BattleEvent_ForceCallHandlers
 0005:021BC940       BattleEvent_CallHandlers
 0005:021BC94C       BattleEventVar_CallHandlersTargetType
 0005:021BC958       BattleEventVar_CallHandlersSub
 0005:021BC98C       BattleEventVar_CallHandlersCore
 0005:021BCA90       BattleEventVar_SkipCheckHandler
 0005:021BCB70       BattleEventItem_AttachSkipCheckHandler
 0005:021BCB74       BattleEventItem_DetachSkipCheckHandler
 0005:021BCB7C       BattleEvent_SeekItem
 0005:021BCBB0       BattleEvent_GetNextItem
 0005:021BCBE4       BattleEvent_PauseMagicCoatItem
 0005:021BCC24       BattleEvent_UnpauseMagicCoatItem
 0005:021BCC54       BattleEvent_PauseEventItemRotation
 0005:021BCC88       BattleEvent_UnpauseEventItemRotation
 0005:021BCCC4       BattleEvent_PushItem
 0005:021BCCE4       BattleEvent_PopItem
 0005:021BCD0C       BattleEvent_ClearItem
 0005:021BCD18       BattleEventVar_InitStack
 0005:021BCD34       BattleEventVar_CheckStackCleared
 0005:021BCD48       BattleEventVar_Push
 0005:021BCD94       BattleEventVar_Pop
 0005:021BCDFC       BattleEventVar_SetValue
 0005:021BCE40       BattleEventVar_SetConstValue
 0005:021BCE84       BattleEventVar_SetRewriteOnceValue
 0005:021BCEC8       BattleEventVar_SetMulValue
 0005:021BCF10       BattleEventVar_RewriteValue
 0005:021BCF58       BattleEventVar_MulValue
 0005:021BCFB0       BattleEventVar_GetValue
 0005:021BCFE0       BattleEventVar_GetValueIfExist
 0005:021BD094       Calc_InitSys
 0005:021BD0D0       Calc_ResetSys
 0005:021BD0E8       Calc_QuitSys
 0005:021BD100       BattleRandom
 0005:021BD138       GetBoostFromStatStage
 0005:021BD15C       Calc_MulRatio
 0005:021BD184       RollCritical
 0005:021BD1A0       GetTypeEffectiveness
 0005:021BD1C6       jpt_21BD1C4
 0005:021BD1E8       def_21BD1C4
 0005:021BD1F0       GetTypeEffectivenessVsMon
 0005:021BD23C       GetTypeEffectivenessMultiplier
 0005:021BD25E       jpt_21BD25C
 0005:021BD270       def_21BD25C
 0005:021BD298       CalcBaseDamage
 0005:021BD2C0       TypeEffectivenessPowerMod
 0005:021BD2D0       jpt_21BD2CE
 0005:021BD2EE       def_21BD2CE
 0005:021BD2F0       GetTypeWeaknesses
 0005:021BD328       ConvertTypeEffectivenessToSimpleEffectiveness
 0005:021BD344       RollEffectChance
 0005:021BD35C       GetGreaterValue
 0005:021BD364       fixed_round
 0005:021BD380       GetRatioOverZero
 0005:021BD390       MultiplyValueByRatio
 0005:021BD3B4       DivideMaxHp
 0005:021BD3C8       DivideMaxHPZeroCheck
 0005:021BD3E0       RandomInRange
 0005:021BD3F8       RollMultiHitHits
 0005:021BD428       CalcWeatherDamage
 0005:021BD48C       WeatherPowerMod
 0005:021BD4C4       MoveConditionToPokeCondition
 0005:021BD4E4       jpt_21BD4E2
 0005:021BD562       def_21BD4E2
 0005:021BD56C       MakeBasicStatus
 0005:021BD582       jpt_21BD580
 0005:021BD5B2       def_21BD580
 0005:021BD5C0       IsBasicStatus
 0005:021BD5CC       Condition_MakeSetTurns
 0005:021BD5F0       ConditionData_MakePoke
 0005:021BD614       MakeCondition
 0005:021BD664       CheckMentalCondition
 0005:021BD688       j_j_GetMentalStatusID
 0005:021BD68C       j_GetMentalStatusID
 0005:021BD708       CalcBaseExpGain
 0005:021BD758       DoesBattleStyleRequireTargetSelect
 0005:021BD778       jpt_21BD776
 0005:021BD790       def_21BD776
 0005:021BD794       GetNumMonsOnField
 0005:021BD7A0       IsGymLeader
 0005:021BD7B4       IsEliteFour
 0005:021BD7C8       IsGymLeaderOrEliteFour
 0005:021BD7F0       CalcWinMoney
 0005:021BD824       CalcWinMoney_Sub
 0005:021BD860       CalcLoseMoney
 0005:021BD8C0       nullsub_35
 0005:021BD8C4       ItemGetParam
 0005:021BD8D4       PokeIDx6_Pack32Bit
 0005:021BD8F8       PokeIDx6_Unpack32Bit
 0005:021BD910       DetermineCurseTargetData
 0005:021BD924       AutoDecideMoveTarget
 0005:021BD974       jpt_21BD972
 0005:021BD9CE       jpt_21BD9CC
 0005:021BDA0E       def_21BD9CC
 0005:021BDA60       DecideMoveTargetAutoForClient
 0005:021BDA98       EscapeInfo_Clear
 0005:021BDAAC       EscapeInfo_Add
 0005:021BDAD4       EscapeInfo_GetCount
 0005:021BDAD8       EscapeInfo_GetWinner
 0005:021BDB38       BattleAction_SetFightParam
 0005:021BDB64       BattleAction_ChangeFightTargetPos
 0005:021BDB94       BattleAction_IsMoveInfoMode
 0005:021BDBC0       BattleAction_SetItemParam
 0005:021BDBFC       BattleAction_SetSwitchParam
 0005:021BDC7C       BattleAction_SetEscapeParam
 0005:021BDC9C       BattleAction_SetNull
 0005:021BDCAC       BattleAction_SetSkip
 0005:021BDCBC       BattleAction_GetAction
 0005:021BDCEC       AbilityEvent_AddItem
 0005:021BDD58       GetNumHandlersWithPriority
 0005:021BDD60       GetHandlerMainPriority
 0005:021BDD78       AbilityEvent_RemoveItem
 0005:021BDDA0       AbilityEvent_ItemRotationSleep
 0005:021BDDB0       AbilityEvent_ItemRotationWake
 0005:021BDDCC       AbilityEvent_Swap
 0005:021BDE18       AbilityEvent_GetSubPriority
 0005:021BDE28       AbilityEvent_RollEffectChance
 0005:021BDE50       EventAddIntimidate
 0005:021BDE5C       HandlerIntimidate
 0005:021BDEE0       EventAddInnerFocus
 0005:021BDEEC       HandlerInnerFocus
 0005:021BDF04       EventAddSteadfast
 0005:021BDF10       HandlerSteadfast
 0005:021BDF58       EventAddThickFat
 0005:021BDF64       HandlerThickFat
 0005:021BDF90       EventAddHugePower
 0005:021BDF9C       HandlerHugePower
 0005:021BDFC8       HandlerSwiftSwim
 0005:021BDFF0       EventAddSwiftSwim
 0005:021BDFFC       HandlerChlorophyll
 0005:021BE024       EventAddChlorophyll
 0005:021BE030       HandlerQuickFeet
 0005:021BE064       EventAddQuickFeet
 0005:021BE070       HandlerTangledFeet
 0005:021BE0A0       EventAddTangledFeet
 0005:021BE0AC       HandlerHustleAccuracy
 0005:021BE0DC       HandlerHustlePower
 0005:021BE114       EventAddHustle
 0005:021BE120       HandlerStall
 0005:021BE138       EventAddStall
 0005:021BE150       HandlerSlowStartCalcSpeed
 0005:021BE174       HandlerSlowStartAttackPower
 0005:021BE1A8       HandlerSlowStartSwitchIn
 0005:021BE1CC       HandlerSlowStartCheckActivation
 0005:021BE1DC       HandlerSlowStartTextSet
 0005:021BE220       HandlerSlowStartTurnCheck
 0005:021BE298       EventAddSlowStart
 0005:021BE2A4       HandlerCompoundEyes
 0005:021BE2C0       EventAddCompoundEyes
 0005:021BE2CC       HandlerSandVeil
 0005:021BE2F4       HandlerSandVeilWeather
 0005:021BE304       EventAddSandVeil
 0005:021BE310       HandlerSnowCloak
 0005:021BE338       HandlerSnowCloakWeather
 0005:021BE348       EventAddSnowCloak
 0005:021BE354       CommonWeatherGuard
 0005:021BE384       HandlerTintedLens
 0005:021BE3AC       EventAddTintedLens
 0005:021BE3B8       HandlerSolidRock
 0005:021BE3E0       EventAddSolidRock
 0005:021BE3EC       HandlerSniper
 0005:021BE410       EventAddSniper
 0005:021BE41C       HandlerSpeedBoost
 0005:021BE468       EventAddSpeedBoost
 0005:021BE474       HandlerAdaptability
 0005:021BE498       EventAddAdaptability
 0005:021BE4A4       HandlerBlaze
 0005:021BE4B4       EventAddBlaze
 0005:021BE4C0       HandlerTorrent
 0005:021BE4D0       EventAddTorrent
 0005:021BE4DC       HandlerOvergrow
 0005:021BE4EC       EventAddOvergrow
 0005:021BE4F8       HandlerSwarm
 0005:021BE508       EventAddSwarm
 0005:021BE514       CommonLowHPBoostAbility
 0005:021BE55C       HandlerGuts
 0005:021BE59C       EventAddGuts
 0005:021BE5A8       HandlerPlusMinus
 0005:021BE5F8       EventAddPlusMinus
 0005:021BE604       CheckPartnerAbility
 0005:021BE668       CheckFlowerGiftEnablePokemon
 0005:021BE684       HandlerFlowerGiftSwitchIn
 0005:021BE6C0       HandlerFlowerGiftGotAbility
 0005:021BE6E4       CommonFlowerGiftFormChange
 0005:021BE744       HandlerFlowerGiftWeather
 0005:021BE784       HandlerFlowerGiftAbilityOff
 0005:021BE7BC       HandlerFlowerGiftAirLock
 0005:021BE7EC       HandlerFlowerGiftAbilityChange
 0005:021BE834       HandlerFlowerGiftPower
 0005:021BE884       HandlerFlowerGiftSpecialDefense
 0005:021BE8CC       EventAddFlowerGift
 0005:021BE8D8       HandlerRivalry
 0005:021BE944       EventAddRivalry
 0005:021BE950       HandlerTechnician
 0005:021BE974       EventAddTechnician
 0005:021BE980       HandlerIronFist
 0005:021BE9B0       EventAddIronFist
 0005:021BE9BC       HandlerReckless
 0005:021BE9F8       EventAddReckless
 0005:021BEA04       HandlerMarvelScale
 0005:021BEA40       EventAddMarvelScale
 0005:021BEA4C       HandlerSkillLink
 0005:021BEA64       EventAddSkillLink
 0005:021BEA70       EventAddHyperCutter
 0005:021BEA7C       HandlerHyperCutterCheck
 0005:021BEA8C       HandlerHyperCutterGuard
 0005:021BEA9C       EventAddKeenEye
 0005:021BEAA8       HandlerKeenEyeCheck
 0005:021BEAB8       HandlerKeenEyeGuard
 0005:021BEAC8       EventAddClearBody
 0005:021BEAD4       HandlerClearBodyCheck
 0005:021BEAE4       HandlerClearBodyGuard
 0005:021BEAF4       CommonStatDropGuardCheck
 0005:021BEB34       CommonStatDropGuardMessage
 0005:021BEBA8       HandlerSimple
 0005:021BEBC8       EventAddSimple
 0005:021BEBD4       HandlerLeafGuard
 0005:021BEC10       HandlerLeafGuardYawnCheck
 0005:021BEC34       EventAddLeafGuard
 0005:021BEC40       HandlerLimberStatus
 0005:021BEC54       HandlerLimberCureStatus
 0005:021BEC64       HandlerLimberActionEnd
 0005:021BEC74       EventAddLimber
 0005:021BEC80       HandlerInsomniaStatus
 0005:021BECA8       HandlerInsomniaWake
 0005:021BECB8       HandlerInsomniaActionEnd
 0005:021BECC8       HandlerInsomniaYawnCheck
 0005:021BECE0       EventAddInsomnia
 0005:021BECEC       HandlerMagmaArmorStatus
 0005:021BED00       HandlerMagmaArmorCureStatus
 0005:021BED10       HandlerMagmaArmorActionEnd
 0005:021BED20       EventAddMagmaArmor
 0005:021BED2C       HandlerImmunity
 0005:021BED40       HandlerImmunityCureStatus
 0005:021BED50       HandlerImmunityActionEnd
 0005:021BED60       EventAddImmunity
 0005:021BED6C       HandlerWaterVeil
 0005:021BED80       HandlerWaterVeilCureStatus
 0005:021BED90       HandlerWaterVeilActionEnd
 0005:021BEDA0       EventAddWaterVeil
 0005:021BEDAC       HandlerOwnTempoStatus
 0005:021BEDC0       HandlerOwnTempoAddStatusFailed
 0005:021BEDD4       HandlerOwnTempoCureStatus
 0005:021BEDE4       HandlerOwnTempoActionEnd
 0005:021BEDF4       EventAddOwnTempo
 0005:021BEE00       HandlerOblivious
 0005:021BEE14       HandlerObliviousCureStatus
 0005:021BEE24       HandlerObliviousActionEnd
 0005:021BEE34       HandlerObliviousNoEffectCheck
 0005:021BEEA4       EventAddOblivious
 0005:021BEEB0       HandlerCommonGuardStatus
 0005:021BEED8       CommonAddStatusFailed
 0005:021BEF34       HandlerAddStatusFailedCommon
 0005:021BEF44       CommonAbilityCureStatus
 0005:021BEF64       CommonAbilityCureStatusCore
 0005:021BEFAC       HandlerDrizzle
 0005:021BEFBC       EventAddDrizzle
 0005:021BEFC8       HandlerDrought
 0005:021BEFD8       EventAddDrought
 0005:021BEFE4       HandlerSandStream
 0005:021BEFF4       EventAddSandStream
 0005:021BF000       HandlerSnowWarning
 0005:021BF010       EventAddSnowWarning
 0005:021BF01C       CommonWeatherChangeAbility
 0005:021BF054       HandlerAirLockSwitchIn
 0005:021BF098       HandlerAirLockChangeWeather
 0005:021BF0A4       EventAddAirLock
 0005:021BF0B0       HandlerIceBody
 0005:021BF0C0       EventAddIceBody
 0005:021BF0CC       HandlerRainDish
 0005:021BF0DC       EventAddRainDish
 0005:021BF0E8       CommonWeatherRecoveryAbility
 0005:021BF144       HandlerSolarPowerWeather
 0005:021BF19C       HandlerSolarPowerPower
 0005:021BF1D4       EventAddSolarPower
 0005:021BF1E0       HandlerShieldDustStatus
 0005:021BF20C       HandlerShieldDustRank
 0005:021BF230       HandlerShieldDustFlinch
 0005:021BF248       HandlerShieldDustGuard
 0005:021BF260       HandlerShieldDustGuardHitEnd
 0005:021BF280       EventAddShieldDust
 0005:021BF28C       HandlerSereneGrace
 0005:021BF2AC       HandlerSereneGraceFlinch
 0005:021BF2C4       EventAddSereneGrace
 0005:021BF2D0       HandlerHydration
 0005:021BF338       EventAddHydration
 0005:021BF344       HandlerShedSkin
 0005:021BF39C       EventAddShedSkin
 0005:021BF3A8       HandlerPoisonHeal
 0005:021BF400       EventAddPoisonHeal
 0005:021BF40C       HandlerBattleArmor
 0005:021BF424       EventAddBattleArmor
 0005:021BF430       HandlerSuperLuck
 0005:021BF454       EventAddSuperLuck
 0005:021BF460       HandlerAngerPoint
 0005:021BF4E8       EventAddAngerPoint
 0005:021BF4F4       HandlerPoisonPoint
 0005:021BF518       EventAddPoisonPoint
 0005:021BF524       HandlerStatic
 0005:021BF548       EventAddStatic
 0005:021BF554       HandlerFlameBody
 0005:021BF578       EventAddFlameBody
 0005:021BF584       HandlerCuteCharm
 0005:021BF60C       EventAddCuteCharm
 0005:021BF618       HandlerEffectSpore
 0005:021BF664       EventAddEffectSpore
 0005:021BF670       CommonContactStatusAbility
 0005:021BF6E8       HandlerRoughSkin
 0005:021BF778       EventAddRoughSkin
 0005:021BF784       HandlerAftermath
 0005:021BF820       EventAddAftermath
 0005:021BF82C       HandlerColorChange
 0005:021BF8A8       EventAddColorChange
 0005:021BF8B4       HandlerSynchronize
 0005:021BF958       EventAddSynchronize
 0005:021BF964       HandlerRockHead
 0005:021BF97C       EventAddRockHead
 0005:021BF988       HandlerNormalize
 0005:021BF9A0       EventAddNormalize
 0005:021BF9AC       EventAddTrace
 0005:021BF9B8       HandlerTrace
 0005:021BFB38       j_j_IsTraceFailAbility
 0005:021BFB3C       j_IsTraceFailAbility
 0005:021BFB48       j_j_IsTraceFailAbility_0
 0005:021BFB4C       j_IsTraceFailAbility_0
 0005:021BFB58       HandlerNaturalCure
 0005:021BFB88       EventAddNaturalCure
 0005:021BFB94       HandlerDownload
 0005:021BFC34       EventAddDownload
 0005:021BFC40       HandlerForewarn
 0005:021BFD84       EventAddForewarn
 0005:021BFD90       HandlerAnticipation
 0005:021BFE24       CheckAnticipationMon
 0005:021BFE80       EventAddAnticipation
 0005:021BFE8C       HandlerFrisk
 0005:021BFF3C       EventAddFrisk
 0005:021BFF48       EventAddSturdy
 0005:021BFF54       HandlerSturdyOneshotCheck
 0005:021BFFB0       HandlerSturdyEndureCheck
 0005:021BFFE8       HandlerSturdySurvive
 0005:021C0044       HandlerUnawareHitRank
 0005:021C0070       HandlerUnawareAttackRank
 0005:021C0088       HandlerUnawareDefenseRank
 0005:021C00A0       EventAddUnaware
 0005:021C00AC       HandlerHeatproofPower
 0005:021C00D0       HandlerHeatproofStatus
 0005:021C0104       EventAddHeatproof
 0005:021C0110       CommonDamageRecoverCheck
 0005:021C0144       CommonTypeRecoverHP
 0005:021C01D4       CommonTypeNoEffectRankUp
 0005:021C0248       HandlerDrySkinWeather
 0005:021C02D8       HandlerDrySkinDamageRecover
 0005:021C02FC       HandlerDrySkinCheck
 0005:021C031C       EventAddDrySkin
 0005:021C0328       HandlerWaterAbsorbCheck
 0005:021C0348       EventAddWaterAbsorb
 0005:021C0354       HandlerVoltAbsorbCheck
 0005:021C0374       EventAddVoltAbsorb
 0005:021C0380       EventAddMotorDrive
 0005:021C038C       HandlerMotorDriveCheck
 0005:021C03B0       HandlerScrappy
 0005:021C03D4       EventAddScrappy
 0005:021C03E0       HandlerSoundproof
 0005:021C0450       EventAddSoundproof
 0005:021C045C       HandlerLevitate
 0005:021C0484       HandlerLevitateAddImmunity
 0005:021C04D4       HandlerLevitateTurnCheck
 0005:021C04EC       EventAddLevitate
 0005:021C04F8       HandlerWonderGuard
 0005:021C0588       EventAddWonderGuard
 0005:021C0594       HandlerTruant
 0005:021C05C0       HandlerTruantGet
 0005:021C05EC       HandlerTruantFailed
 0005:021C0640       HandlerTruantEndAction
 0005:021C0660       EventAddTruant
 0005:021C066C       HandlerDamp
 0005:021C06A0       HandlerDampEffective
 0005:021C06FC       HandlerDampStart
 0005:021C070C       HandlerDampEnd
 0005:021C0714       HandlerDampGastroAcid
 0005:021C072C       HandlerDampSkipCheck
 0005:021C0740       EventAddDamp
 0005:021C074C       HandlerFlashFirePower
 0005:021C0784       HandlerFlashFireRemove
 0005:021C07C0       HandlerFlashFireCheckNoEffect
 0005:021C0868       EventAddFlashFire
 0005:021C0874       HandlerBadDreams
 0005:021C0938       EventAddBadDreams
 0005:021C0944       HandlerRunAway
 0005:021C094C       HandlerRunAwayMessage
 0005:021C0990       EventAddRunAway
 0005:021C099C       HandlerMoldBreakerSwitchIn
 0005:021C0A10       HandlerMoldBreakerSkipCheck
 0005:021C0A2C       j_j_IsMoldBreakerAffectedAbility
 0005:021C0A30       j_IsMoldBreakerAffectedAbility
 0005:021C0A3C       HandlerMoldBreakerStart
 0005:021C0A68       HandlerMoldBreakerEnd
 0005:021C0A8C       HandlerMoldBreakerConfirm
 0005:021C0AB0       EventAddMoldBreaker
 0005:021C0ABC       HandlerForecastSwitchIn
 0005:021C0ADC       HandlerForecastGetAbility
 0005:021C0B00       HandlerForecastWeather
 0005:021C0B20       HandlerForecastAirLock
 0005:021C0B30       HandlerForecastChangeAbility
 0005:021C0B60       HandlerForecastAbilityOff
 0005:021C0B80       CommonForecastOff
 0005:021C0BDC       CommonForecastFormChange
 0005:021C0C10       jpt_21C0C0E
 0005:021C0C26       def_21C0C0E
 0005:021C0C6C       EventAddForecast
 0005:021C0C78       EventAddStormDrain
 0005:021C0C84       HandlerStormDrain
 0005:021C0C98       HandlerStormDrainCheckNoEffect
 0005:021C0CBC       EventAddLightningRod
 0005:021C0CC8       HandlerLightningRod
 0005:021C0CDC       HandlerLightningRodStart
 0005:021C0D2C       HandlerLightningRodCheckNoEffect
 0005:021C0D50       CommonRedirectMove
 0005:021C0DB8       j_j_IsComboMove
 0005:021C0DBC       j_IsComboMove
 0005:021C0DC8       HandlerSuctionCups
 0005:021C0E1C       EventAddSuctionCups
 0005:021C0E28       HandlerLiquidOoze
 0005:021C0E94       HandlerLiquidOozeFainted
 0005:021C0EAC       EventAddLiquidOoze
 0005:021C0EB8       HandlerKlutzSkipCheck
 0005:021C0F0C       HandlerKlutzSwitchIn
 0005:021C0F28       HandlerKlutzGetAbility
 0005:021C0F4C       HandlerKlutzPreChange
 0005:021C0F64       HandlerKlutzGastroAcid
 0005:021C0F9C       HandlerKlutzCheck
 0005:021C0FDC       HandlerKlutzFail
 0005:021C1044       EventAddKlutz
 0005:021C1050       HandlerStickyHoldNoEffect
 0005:021C10BC       HandlerStickyHold
 0005:021C10E4       HandlerStickyHoldReaction
 0005:021C1138       EventAddStickyHold
 0005:021C1144       EventAddPressure
 0005:021C1150       HandlerPressureSwitchIn
 0005:021C11A4       HandlerPressure
 0005:021C1204       j_j_IsPressureAffectedMove
 0005:021C1208       j_IsPressureAffectedMove
 0005:021C1214       EventAddMagicGuard
 0005:021C1220       HandlerMagicGuard
 0005:021C1238       EventAddStench
 0005:021C1244       HandlerStench
 0005:021C1268       EventAddShadowTag
 0005:021C1274       HandlerShadowTag
 0005:021C12DC       EventAddArenaTrap
 0005:021C12E8       HandlerArenaTrap
 0005:021C134C       EventAddMagnetPull
 0005:021C1358       HandlerMagnetPull
 0005:021C13C0       EventAddUnburden
 0005:021C13CC       HandlerUnburdenBeforeItemSet
 0005:021C1400       HandlerUnburdenSpeed
 0005:021C1434       EventAddPickup
 0005:021C1440       HandlerPickup
 0005:021C1548       EventAddPickpocket
 0005:021C1554       HandlerPickpocket
 0005:021C1604       HandlerCursedBody
 0005:021C16B8       j_j_IsDelayedHitMove
 0005:021C16BC       j_IsDelayedHitMove
 0005:021C16C8       EventAddCursedBody
 0005:021C16D4       HandlerWeakArmor
 0005:021C1784       EventAddWeakArmor
 0005:021C1790       HandlerSheerForcePower
 0005:021C17C0       HandlerSheerForceCheckFail
 0005:021C17EC       HandlerSheerForceFlinchCheck
 0005:021C1804       HandlerSheerForceHitCheck
 0005:021C1830       EventAddSheerForce
 0005:021C183C       IsAffectedBySheerForce
 0005:021C18B4       statIdx
 0005:021C18BC       HandlerDefiant
 0005:021C1918       EventAddDefiant
 0005:021C1924       HandlerDefeatist
 0005:021C1960       EventAddDefeatist
 0005:021C196C       HandlerMultiscale
 0005:021C1998       EventAddMultiscale
 0005:021C19A4       HandlerFriendGuard
 0005:021C19CC       EventAddFriendGuard
 0005:021C19D8       HandlerHealer
 0005:021C1A74       EventAddHealer
 0005:021C1A80       HandlerToxicBoost
 0005:021C1AB8       EventAddToxicBoost
 0005:021C1AC4       HandlerFlareBoost
 0005:021C1AFC       EventAddFlareBoost
 0005:021C1B08       HandlerTelepathy
 0005:021C1B88       EventAddTelepathy
 0005:021C1B94       HandlerMoody
 0005:021C1D00       EventAddMoody
 0005:021C1D0C       HandlerOvercoat
 0005:021C1D30       EventAddOvercoat
 0005:021C1D3C       HandlerPoisonTouch
 0005:021C1DCC       EventAddPoisonTouch
 0005:021C1DE4       HandlerRegenerator
 0005:021C1E54       EventAddRegenerator
 0005:021C1E60       EventAddBigPecks
 0005:021C1E6C       HandlerBigPecksCheck
 0005:021C1E7C       HandlerBigPecksGuard
 0005:021C1E8C       EventAddSandRush
 0005:021C1E98       HandlerSandRush
 0005:021C1EC0       EventAddWonderSkin
 0005:021C1ECC       HandlerWonderSkin
 0005:021C1EFC       EventAddAnalytic
 0005:021C1F08       HandlerAnalytic
 0005:021C1F44       IsMoveDelayedAttack
 0005:021C1F48       j_IsDelayedHitMove_0
 0005:021C1F54       EventAddSandForce
 0005:021C1F60       HandlerSandForce
 0005:021C1FA0       HandlerZenMode
 0005:021C2024       HandlerZenModeGastroAcid
 0005:021C207C       EventAddZenMode
 0005:021C2088       HandlerInfiltratorSkipCheck
 0005:021C20AC       HandlerInfiltratorStart
 0005:021C20CC       HandlerInfiltratorEnd
 0005:021C20E4       EventAddInfiltrator
 0005:021C20F0       EventAddMoxie
 0005:021C20FC       HandlerMoxie
 0005:021C2164       EventAddJustified
 0005:021C2170       HandlerJustified
 0005:021C21BC       EventAddRattled
 0005:021C21C8       HandlerRattled
 0005:021C2224       EventAddMummy
 0005:021C2230       HandlerMummy
 0005:021C22D0       HandlerSapSipper
 0005:021C22F4       EventAddSapSipper
 0005:021C2300       HandlerPrankster
 0005:021C2334       EventAddPrankster
 0005:021C2340       HandlerMagicBounceCheck
 0005:021C2348       HandlerMagicBounceWait
 0005:021C2350       HandlerMagicBounceReflect
 0005:021C2394       EventAddMagicBounce
 0005:021C23A0       HandlerHarvest
 0005:021C2438       EventAddHarvest
 0005:021C2444       EventAddHeavyMetal
 0005:021C2450       HandlerHeavyMetal
 0005:021C246C       EventAddLightMetal
 0005:021C2478       HandlerLightMetal
 0005:021C2494       HandlerContrary
 0005:021C24B8       EventAddContrary
 0005:021C24C4       HandlerUnnerveSwitchIn
 0005:021C24E8       HandlerUnnerveRotationIn
 0005:021C2554       HandlerUnnerveSkipCheck
 0005:021C257C       EventAddUnnerve
 0005:021C2588       HandlerImposter
 0005:021C2620       EventAddImposter
 0005:021C262C       EventAddIllusion
 0005:021C2638       HandlerIllusionDamage
 0005:021C2660       HandlerIllusionGastroAcid
 0005:021C2680       HandlerIllusionChangeAbility
 0005:021C26B0       CommonIllusionBreak
 0005:021C26F8       EventAddVictoryStar
 0005:021C2704       HandlerVictoryStar
 0005:021C272C       ItemEvent_AddItemCore
 0005:021C278C       ItemEvent_RemoveItem
 0005:021C27C4       ItemEvent_AddItem
 0005:021C27E0       ItemEvent_AddTempItem
 0005:021C2804       j_BattleEventItem_Remove
 0005:021C280C       ItemEvent_PauseItemRotation
 0005:021C281C       ItemEvent_UnpauseItemRotation
 0005:021C2838       ItemEvent_RollEffectChance
 0005:021C2860       CommonGetItemParam
 0005:021C2870       ItemAttackValueToRatio
 0005:021C28AC       ItemEvent_PushRun
 0005:021C28C4       HandlerCheriBerry
 0005:021C28D0       HandlerCheriBerryUse
 0005:021C28DC       EventAddCheriBerry
 0005:021C28E8       HandlerChestoBerry
 0005:021C28F4       HandlerChestoBerryUse
 0005:021C2900       EventAddChestoBerry
 0005:021C290C       HandlerRawstBerry
 0005:021C2918       HandlerRawstBerryUse
 0005:021C2924       EventAddRawstBerry
 0005:021C2930       HandlerAspearBerry
 0005:021C293C       HandlerAspearBerryUse
 0005:021C2948       EventAddAspearBerry
 0005:021C2954       HandlerPersimBerry
 0005:021C2960       HandlerPersimBerryUse
 0005:021C296C       EventAddPersimBerry
 0005:021C2978       HandlerPechaBerry
 0005:021C2984       HandlerPechaBerryUse
 0005:021C2990       EventAddPechaBerry
 0005:021C299C       HandlerLumBerry
 0005:021C29A8       HandlerLumBerryUse
 0005:021C29B4       EventAddLumBerry
 0005:021C29C0       CommonStatusReaction
 0005:021C2A04       CommonUseForStatus
 0005:021C2A40       CommonConditionCodeMatch
 0005:021C2A9C       EventAddLeppaBerry
 0005:021C2AA8       HandlerLeppaBerryMoveEnd
 0005:021C2AD4       HandlerLeppaBerryReaction
 0005:021C2B0C       HandlerLeppaBerryGet
 0005:021C2B38       HandlerLeppaBerryPPUsed
 0005:021C2B60       HandlerLeppaBerryUse
 0005:021C2B88       HandlerLeppaBerryUseTemp
 0005:021C2BA0       CommonLeppaBerryLastMoveID
 0005:021C2BD0       CommonLeppaBerryEnableMoveID
 0005:021C2C04       HandlerLeppaBerryCommon
 0005:021C2CDC       EventAddOranBerry
 0005:021C2CE8       HandlerOranBerryReaction
 0005:021C2D18       HandlerOranBerrySwitchIn
 0005:021C2D48       HandlerOranBerryCheckActivation
 0005:021C2D7C       HandlerOranBerryUse
 0005:021C2DD8       EventAddBerryJuice
 0005:021C2DE4       EventAddSitrusBerry
 0005:021C2DF0       HandlerSitrusBerryUse
 0005:021C2E70       EventAddFigyBerry
 0005:021C2E7C       HandlerFigyBerryUse
 0005:021C2E8C       HandlerFigyBerryUseTemp
 0005:021C2EA4       EventAddWikiBerry
 0005:021C2EB0       HandlerWikiBerryUse
 0005:021C2EC0       HandlerWikiBerryUseTemp
 0005:021C2ED8       EventAddMagoBerry
 0005:021C2EE4       HandlerMagoBerryUse
 0005:021C2EF4       HandlerMagoBerryUseTemp
 0005:021C2F0C       EventAddAguavBerry
 0005:021C2F18       HandlerAguavBerryUse
 0005:021C2F28       HandlerAguavBerryUseTemp
 0005:021C2F40       EventAddIapapaBerry
 0005:021C2F4C       HandlerIapapaBerryUse
 0005:021C2F5C       HandlerIapapaBerryUseTemp
 0005:021C2F74       HandlerCommonPinchBerryReaction
 0005:021C2FAC       HandlerCommonPinchBerrySwitchIn
 0005:021C2FE4       HandlerCommonPinchBerryCheckActivation
 0005:021C3020       CommonPinchBerry
 0005:021C30D8       EventAddLiechiBerry
 0005:021C30E4       HandlerLiechiBerry
 0005:021C30F4       EventAddGanlonBerry
 0005:021C3100       HandlerGanlonBerry
 0005:021C3110       EventAddSalacBerry
 0005:021C311C       HandlerSalacBerry
 0005:021C312C       EventAddPetayaBerry
 0005:021C3138       HandlerPetayaBerry
 0005:021C3148       EventAddApicotBerry
 0005:021C3154       HandlerApicotBerry
 0005:021C3164       EventAddLansatBerry
 0005:021C3170       HandlerLansatBerry
 0005:021C31E8       EventAddStarfBerry
 0005:021C31F4       HandlerStarfBerry
 0005:021C3250       CommonStatBoostBerry
 0005:021C3284       EventAddEnigmaBerry
 0005:021C3290       HandlerEnigmaBerry
 0005:021C32D4       HandlerEnigmaBerryUse
 0005:021C3320       EventAddOccaBerry
 0005:021C332C       HandlerOccaBerry
 0005:021C3340       EventAddPasshoBerry
 0005:021C334C       HandlerPasshoBerry
 0005:021C3360       EventAddWacanBerry
 0005:021C336C       HandlerWacanBerry
 0005:021C3380       EventAddRindoBerry
 0005:021C338C       HandlerRindoBerry
 0005:021C33A0       EventAddYacheBerry
 0005:021C33AC       HandlerYacheBerry
 0005:021C33C0       EventAddChopleBerry
 0005:021C33CC       HandlerChopleBerry
 0005:021C33E0       EventAddKebiaBerry
 0005:021C33EC       HandlerKebiaBerry
 0005:021C3400       EventAddShucaBerry
 0005:021C340C       HandlerShucaBerry
 0005:021C3420       EventAddCobaBerry
 0005:021C342C       HandlerCobaBerry
 0005:021C3440       EventAddPayapaBerry
 0005:021C344C       HandlerPayapaBerry
 0005:021C3460       EventAddTangaBerry
 0005:021C346C       HandlerTangaBerry
 0005:021C3480       EventAddChartiBerry
 0005:021C348C       HandlerChartiBerry
 0005:021C34A0       EventAddKasibBerry
 0005:021C34AC       HandlerKasibBerry
 0005:021C34C0       EventAddHabanBerry
 0005:021C34CC       HandlerHabanBerry
 0005:021C34E0       EventAddColburBerry
 0005:021C34EC       HandlerColburBerry
 0005:021C3500       EventAddBabiriBerry
 0005:021C350C       HandlerBabiriBerry
 0005:021C3520       EventAddChilanBerry
 0005:021C352C       HandlerChilanBerry
 0005:021C3540       CommonResistBerry
 0005:021C35A0       HandlerCommonResistBerryDamageAfter
 0005:021C35F4       HandlerPinchReactionCommon
 0005:021C362C       HandlerPinchReactionSwitchIn
 0005:021C3664       CommonDamageReactCheckActivation
 0005:021C3698       CommonDamageReact
 0005:021C36DC       CommonDamageReactCheck
 0005:021C370C       CommonDamageReactCheckCore
 0005:021C3758       EventAddCustapBerry
 0005:021C3764       HandlerCustapBerryPriorityCheck
 0005:021C37A0       HandlerCustapBerryUse
 0005:021C37F4       EventAddMicleBerry
 0005:021C3800       HandlerMicleBerryReaction
 0005:021C3844       HandlerMicleBerryActProcEnd
 0005:021C3868       HandlerMicleBerryActionEnd
 0005:021C388C       HandlerMicleBerrySwitchIn
 0005:021C38C0       HandlerMicleBerryUse
 0005:021C3928       HandlerMicleBerryUseTemp
 0005:021C3938       EventAddJabocaBerry
 0005:021C3944       HandlerJabocaBerry
 0005:021C3954       EventAddRowapBerry
 0005:021C3960       HandlerRowapBerry
 0005:021C3970       CommonJabocaRowapBerryReaction
 0005:021C39D8       j_j_IsDelayedHitMove_1
 0005:021C39DC       j_IsDelayedHitMove_1
 0005:021C39E8       HandlerJabocaRowapBerryUse
 0005:021C3A84       EventAddWhiteHerb
 0005:021C3A90       HandlerWhiteHerbReaction
 0005:021C3AB4       HandlerWhiteHerbActionEnd
 0005:021C3AD8       HandlerWhiteHerbTurnCheck
 0005:021C3B08       HandlerWhiteHerbUse
 0005:021C3B68       HandlerWhiteHerbUseTemp
 0005:021C3B78       EventAddMentalHerb
 0005:021C3B84       HandlerMentalHerbReaction
 0005:021C3BB4       HandlerMentalHerbUse
 0005:021C3BC0       HandlerMentalHerbUseTemp
 0005:021C3BD0       EventAddBrightPowder
 0005:021C3BDC       HandlerBrightPowder
 0005:021C3C30       EventAddMachoBrace
 0005:021C3C3C       HandlerMachoBrace
 0005:021C3C58       EventAddQuickClaw
 0005:021C3C64       HandlerQuickClawPriorityCheck
 0005:021C3CA8       HandlerQuickClawUse
 0005:021C3CFC       EventAddLaggingTail
 0005:021C3D08       HandlerLaggingTail
 0005:021C3D20       EventAddKingsRock
 0005:021C3D2C       HandlerKingsRock
 0005:021C3D5C       HandlerKingsRockUseTemp
 0005:021C3D88       EventAddRazorFang
 0005:021C3D94       EventAddWideLens
 0005:021C3DA0       HandlerWideLens
 0005:021C3DC0       EventAddScopeLens
 0005:021C3DCC       HandlerScopeLens
 0005:021C3DF4       EventAddLuckyPunch
 0005:021C3E00       HandlerLuckyPunch
 0005:021C3E38       EventAddStick
 0005:021C3E44       HandlerStick
 0005:021C3E7C       EventAddZoomLens
 0005:021C3E88       HandlerZoomLens
 0005:021C3EC4       EventAddLaxIncense
 0005:021C3ED0       HandlerLaxIncense
 0005:021C3F28       EventAddMuscleBand
 0005:021C3F34       HandlerMuscleBand
 0005:021C3F68       EventAddWiseGlasses
 0005:021C3F74       HandlerWiseGlasses
 0005:021C3FA8       EventAddDeepSeaTooth
 0005:021C3FB4       HandlerDeepSeaTooth
 0005:021C3FF8       EventAddDeepSeaScale
 0005:021C4004       HandlerDeepSeaScale
 0005:021C4040       EventAddMetalPowder
 0005:021C404C       HandlerMetalPowder
 0005:021C4090       EventAddQuickPowder
 0005:021C409C       HandlerQuickPowder
 0005:021C40D4       EventAddSoulDew
 0005:021C40E0       HandlerSoulDewAttacker
 0005:021C411C       HandlerSoulDewDefender
 0005:021C4158       EventAddThickClub
 0005:021C4164       HandlerThickClub
 0005:021C41A4       EventAddChoiceBand
 0005:021C41B0       HandlerChoiceBandPower
 0005:021C41DC       EventAddChoiceSpecs
 0005:021C41E8       HandlerChoiceSpecsPower
 0005:021C4214       EventAddChoiceScarf
 0005:021C4220       HandlerChoiceScarf
 0005:021C423C       HandlerChoiceItemCommonMoveLock
 0005:021C4284       HandlerChoiceItemCommonItemChange
 0005:021C42B4       EventAddFocusSash
 0005:021C42C0       HandlerFocusSash
 0005:021C42F4       HandlerFocusSashUse
 0005:021C4350       EventAddFocusBand
 0005:021C435C       HandlerFocusBandCheck
 0005:021C4398       HandlerFocusBand
 0005:021C43C4       HandlerFocusBandUse
 0005:021C4410       EventAddExpertBelt
 0005:021C441C       HandlerExpertBelt
 0005:021C4448       EventAddLifeOrb
 0005:021C4454       HandlerLifeOrbReaction
 0005:021C44AC       HandlerLifeOrbPower
 0005:021C44CC       EventAddMetronomeItem
 0005:021C44D8       HandlerMetronomeItem
 0005:021C4574       j_j_IsDelayedHitMove_2
 0005:021C4578       j_IsDelayedHitMove_2
 0005:021C4584       EventAddGripClaw
 0005:021C4590       HandlerGripClaw
 0005:021C45C8       EventAddShellBell
 0005:021C45D4       HandlerShellBell
 0005:021C4654       EventAddLightClay
 0005:021C4660       HandlerLightClay
 0005:021C46A4       EventAddPowerHerb
 0005:021C46B0       HandlerPowerHerbCheckChargeSkip
 0005:021C46E4       HandlerPowerHerbChargeSkip
 0005:021C470C       HandlerPowerHerbUse
 0005:021C4758       EventAddLeftovers
 0005:021C4764       HandlerLeftoversReaction
 0005:021C47B0       HandlerLeftoversUse
 0005:021C4820       EventAddBlackSludge
 0005:021C482C       HandlerBlackSludge
 0005:021C4920       EventAddDestinyKnot
 0005:021C492C       HandlerDestinyKnot
 0005:021C49AC       EventAddStickyBarb
 0005:021C49B8       HandlerStickyBarbDamageReaction
 0005:021C4A18       HandlerStickyBarbTurnCheck
 0005:021C4AA8       EventAddPowerBracer
 0005:021C4AB4       EventAddPowerBelt
 0005:021C4AC0       EventAddPowerLens
 0005:021C4ACC       EventAddPowerBand
 0005:021C4AD8       EventAddPowerAnklet
 0005:021C4AE4       EventAddPowerWeight
 0005:021C4AF0       HandlerPowerItemCalcSpeed
 0005:021C4B0C       EventAddFlamePlate
 0005:021C4B18       EventAddSplashPlate
 0005:021C4B24       EventAddZapPlate
 0005:021C4B30       EventAddMeadowPlate
 0005:021C4B3C       EventAddIciclePlate
 0005:021C4B48       EventAddFistPlate
 0005:021C4B54       EventAddToxicPlate
 0005:021C4B60       EventAddEarthPlate
 0005:021C4B6C       EventAddSkyPlate
 0005:021C4B78       EventAddMindPlate
 0005:021C4B84       EventAddInsectPlate
 0005:021C4B90       EventAddStonePlate
 0005:021C4B9C       EventAddSpookyPlate
 0005:021C4BA8       EventAddDracoPlate
 0005:021C4BB4       EventAddDreadPlate
 0005:021C4BC0       EventAddIronPlate
 0005:021C4BCC       EventAddBigRoot
 0005:021C4BD8       HandlerBigRoot
 0005:021C4BF8       EventAddSmokeBall
 0005:021C4C04       HandlerSmokeBall
 0005:021C4C0C       HandlerSmokeBallMessage
 0005:021C4C60       EventAddAmuletCoin
 0005:021C4C6C       HandlerAmuletCoinSwitchIn
 0005:021C4C88       HandlerAmuletCoin
 0005:021C4C94       EventAddGriseousOrb
 0005:021C4CA0       HandlerGriseousOrb
 0005:021C4CE8       EventAddIcyRock
 0005:021C4CF4       HandlerIcyRock
 0005:021C4D00       EventAddSmoothRock
 0005:021C4D0C       HandlerSmoothRock
 0005:021C4D18       EventAddHeatRock
 0005:021C4D24       HandlerHeatRock
 0005:021C4D30       EventAddDampRock
 0005:021C4D3C       HandlerDampRock
 0005:021C4D48       CommonWeatherMoveIncreaseTurns
 0005:021C4D78       EventAddLightBall
 0005:021C4D84       HandlerLightBall
 0005:021C4DB0       HandlerLightBallUseTemp
 0005:021C4DF0       EventAddToxicOrb
 0005:021C4DFC       HandlerToxicOrb
 0005:021C4E5C       HandlerToxicOrbUseTemp
 0005:021C4E9C       EventAddFlameOrb
 0005:021C4EA8       HandlerFlameOrb
 0005:021C4F14       HandlerFlameOrbUseTemp
 0005:021C4F54       EventAddSilverPowder
 0005:021C4F60       HandlerSilverPowder
 0005:021C4F6C       EventAddSoftSand
 0005:021C4F78       HandlerSoftSand
 0005:021C4F84       EventAddHardStone
 0005:021C4F90       HandlerHardStone
 0005:021C4F9C       EventAddMiracleSeed
 0005:021C4FA8       HandlerMiracleSeed
 0005:021C4FB4       EventAddBlackGlasses
 0005:021C4FC0       HandlerBlackGlasses
 0005:021C4FCC       EventAddBlackBelt
 0005:021C4FD8       HandlerBlackBelt
 0005:021C4FE4       EventAddMagnet
 0005:021C4FF0       HandlerMagnet
 0005:021C4FFC       EventAddMetalCoat
 0005:021C5008       HandlerMetalCoat
 0005:021C5014       EventAddMysticWater
 0005:021C5020       HandlerMysticWater
 0005:021C502C       EventAddSharpBeak
 0005:021C5038       HandlerSharpBeak
 0005:021C5044       EventAddPoisonBarb
 0005:021C5050       HandlerPoisonBarb
 0005:021C505C       HandlerPoisonBarbUseTemp
 0005:021C509C       EventAddNeverMeltIce
 0005:021C50A8       HandlerNeverMeltIce
 0005:021C50B4       EventAddSpellTag
 0005:021C50C0       HandlerSpellTag
 0005:021C50CC       EventAddTwistedSpoon
 0005:021C50D8       HandlerTwistedSpoon
 0005:021C50E4       EventAddCharcoal
 0005:021C50F0       HandlerCharcoal
 0005:021C50FC       EventAddDragonFang
 0005:021C5108       HandlerDragonFang
 0005:021C5114       EventAddSilkScarf
 0005:021C5120       HandlerSilkScarf
 0005:021C512C       EventAddOddIncense
 0005:021C5138       HandlerOddIncense
 0005:021C5144       EventAddRockIncense
 0005:021C5150       HandlerRockIncense
 0005:021C515C       EventAddWaveIncense
 0005:021C5168       HandlerWaveIncense
 0005:021C5174       EventAddSeaIncense
 0005:021C5180       HandlerSeaIncense
 0005:021C518C       EventAddRoseIncense
 0005:021C5198       HandlerRoseIncense
 0005:021C51A4       CommonTypeBoostingItem
 0005:021C51D0       EventAddLustrousOrb
 0005:021C51DC       HandlerLustrousOrb
 0005:021C5224       EventAddAdamantOrb
 0005:021C5230       HandlerAdamantOrb
 0005:021C527C       EventAddIronBall
 0005:021C5288       HandlerIronBallCalcSpeed
 0005:021C52A4       HandlerIronBallCheckFly
 0005:021C52BC       EventAddFloatStone
 0005:021C52C8       HandlerFloatStone
 0005:021C52E4       EventAddEviolite
 0005:021C52F0       HandlerEviolite
 0005:021C5318       EventAddRockyHelmet
 0005:021C5324       HandlerRockyHelmet
 0005:021C53A8       EventAddAirBalloon
 0005:021C53B4       HandlerAirBalloonSwitchIn
 0005:021C53FC       HandlerAirBalloonCheckFlying
 0005:021C5414       HandlerAirBalloonDamageReaction
 0005:021C545C       EventAddRedCard
 0005:021C5468       HandlerRedCard
 0005:021C5514       EventAddRingTarget
 0005:021C5520       HandlerRingTarget
 0005:021C5544       EventAddBindingBand
 0005:021C5550       HandlerBindingBand
 0005:021C557C       EventAddAbsorbBulb
 0005:021C5588       HandlerAbsorbBulbDamageReaction
 0005:021C55D0       HandlerAbsorbBulbUse
 0005:021C5600       EventAddCellBattery
 0005:021C560C       HandlerCellBatteryDamageReaction
 0005:021C5654       HandlerCellBatteryUse
 0005:021C5684       EventAddEjectButton
 0005:021C5690       HandlerEjectButtonReaction
 0005:021C56F0       HandlerEjectButtonUse
 0005:021C5750       EventAddFireGem
 0005:021C575C       HandlerFireGemPower
 0005:021C576C       HandlerFireGemDecide
 0005:021C577C       EventAddWaterGem
 0005:021C5788       HandlerWaterGemPower
 0005:021C5798       HandlerWaterGemDecide
 0005:021C57A8       EventAddElectricGem
 0005:021C57B4       HandlerElectricGemPower
 0005:021C57C4       HandlerElectricGemDecide
 0005:021C57D4       EventAddGrassGem
 0005:021C57E0       HandlerGrassGemPower
 0005:021C57F0       HandlerGrassGemDecide
 0005:021C5800       EventAddIceGem
 0005:021C580C       HandlerIceGemPower
 0005:021C581C       HandlerIceGemDecide
 0005:021C582C       EventAddFightingGem
 0005:021C5838       HandlerFightingGemPower
 0005:021C5848       HandlerFightingGemDecide
 0005:021C5858       EventAddPoisonGem
 0005:021C5864       HandlerPoisonGemPower
 0005:021C5874       HandlerPoisonGemDecide
 0005:021C5884       EventAddGroundGem
 0005:021C5890       HandlerGroundGemPower
 0005:021C58A0       HandlerGroundGemDecide
 0005:021C58B0       EventAddFlyingGem
 0005:021C58BC       HandlerFlyingGemPower
 0005:021C58CC       HandlerFlyingGemDecide
 0005:021C58DC       EventAddPsychicGem
 0005:021C58E8       HandlerPsychicGemPower
 0005:021C58F8       HandlerPsychicGemDecide
 0005:021C5908       EventAddBugGem
 0005:021C5914       HandlerBugGemPower
 0005:021C5924       HandlerBugGemDecide
 0005:021C5934       EventAddRockGem
 0005:021C5940       HandlerRockGemPower
 0005:021C5950       HandlerRockGemDecide
 0005:021C5960       EventAddGhostGem
 0005:021C596C       HandlerGhostGemPower
 0005:021C597C       HandlerGhostGemDecide
 0005:021C598C       EventAddDragonGem
 0005:021C5998       HandlerDragonGemPower
 0005:021C59A8       HandlerDragonGemDecide
 0005:021C59B8       EventAddDarkGem
 0005:021C59C4       HandlerDarkGemPower
 0005:021C59D4       HandlerDarkGemDecide
 0005:021C59E4       EventAddSteelGem
 0005:021C59F0       HandlerSteelGemPower
 0005:021C5A00       HandlerSteelGemDecide
 0005:021C5A10       EventAddNormalGem
 0005:021C5A1C       HandlerNormalGemPower
 0005:021C5A2C       HandlerNormalGemDecide
 0005:021C5A3C       CommonGemDecide
 0005:021C5ADC       j_j_IsComboMove_0
 0005:021C5AE0       j_IsComboMove_0
 0005:021C5AEC       CommonGemPower
 0005:021C5B28       HandlerGemEnd
 0005:021C5B44       MoveEvent_AddItem
 0005:021C5BBC       MoveEvent_CanEffectBeRegistered
 0005:021C5BFC       MoveEvent_RemoveItem
 0005:021C5C40       MoveEvent_ForceRemoveItemFromBattleMon
 0005:021C5C50       MoveEvent_IsWorkSet
 0005:021C5C60       MoveEvent_ForceRemoveItem
 0005:021C5C9C       MoveEvent_ForceRemoveAllItems
 0005:021C5CC4       EventAddConversion
 0005:021C5CD0       HandlerConversion
 0005:021C5D74       EventAddCamouflage
 0005:021C5D80       HandlerCamouflage
 0005:021C5DA6       jpt_21C5DA4
 0005:021C5DD2       def_21C5DA4
 0005:021C5E14       EventAddTrickRoom
 0005:021C5E20       HandlerTrickRoom
 0005:021C5E8C       EventAddGravity
 0005:021C5E98       HandlerGravity
 0005:021C5EF0       EventAddWaterSport
 0005:021C5EFC       HandlerWaterSport
 0005:021C5F40       EventAddMudSport
 0005:021C5F4C       HandlerMudSport
 0005:021C5F90       EventAddDefog
 0005:021C5F9C       HandlerDefog
 0005:021C607C       EventAddBrickBreak
 0005:021C6088       HandlerBrickBreakStart
 0005:021C60A8       HandlerBrickBreakEnd
 0005:021C60C0       HandlerBrickBreakCheck
 0005:021C6150       j_j_BattleSideStatus_IsEffectActive
 0005:021C6154       j_BattleSideStatus_IsEffectActive
 0005:021C6160       j_j_BattleSideStatus_IsEffectActive_0
 0005:021C6164       j_BattleSideStatus_IsEffectActive_0
 0005:021C6170       HandlerBrickBreakSkipCheck
 0005:021C6184       EventJumpKickAdd
 0005:021C6190       HandlerJumpKickMiss
 0005:021C61B4       CommonJumpKickEffect
 0005:021C61FC       EventAddMimic
 0005:021C6208       HandlerMimic
 0005:021C62D4       j_j_IsMimicFailMove
 0005:021C62D8       j_IsMimicFailMove
 0005:021C62E4       EventAddSketch
 0005:021C62F0       HandlerSketch
 0005:021C63CC       EventAddFollowMe
 0005:021C63D8       HandlerFollowMeCheckFail
 0005:021C6414       HandlerFollowMeTextSet
 0005:021C6458       HandlerFollowMeBaitTarget
 0005:021C64DC       HandlerFollowMeTurnCheck
 0005:021C64F0       EventAddRefresh
 0005:021C64FC       HandlerRefresh
 0005:021C6544       EventAddSpiderWeb
 0005:021C6550       HandlerSpiderWeb
 0005:021C65B8       EventAddHaze
 0005:021C65C4       HandlerHaze
 0005:021C6628       EventAddSplash
 0005:021C6634       HandlerSplash
 0005:021C6664       EventAddCurse
 0005:021C6670       HandlerCurseMoveParam
 0005:021C6698       HandlerCurse
 0005:021C67B4       EventAddThunderWave
 0005:021C67C0       HandlerThunderWave
 0005:021C67D8       EventAddWorrySeed
 0005:021C67E4       HandlerWorrySeedCheckFail
 0005:021C6828       HandlerWorrySeed
 0005:021C6880       EventAddDreamEater
 0005:021C688C       HandlerDreamEater
 0005:021C68C0       HandlerDreamEaterSubstituteCheck
 0005:021C68D8       EventAddCaptivate
 0005:021C68E4       HandlerCaptivate
 0005:021C693C       EventAddTriAttack
 0005:021C6948       HandlerTriAttack
 0005:021C6990       EventAddSecretPower
 0005:021C699C       CommonSecretPowerGetParams
 0005:021C69B6       jpt_21C69B4
 0005:021C69E6       def_21C69B4
 0005:021C6A30       HandlerSecretPowerStart
 0005:021C6A54       HandlerSecretPower
 0005:021C6B10       EventAddChatter
 0005:021C6B1C       HandlerChatter
 0005:021C6B8C       EventAddBind
 0005:021C6B98       HandlerBind
 0005:021C6BCC       HandlerBindTextSet
 0005:021C6C7C       EventAddWhirlpool
 0005:021C6C88       HandlerWhirlpoolDiveCheck
 0005:021C6CAC       HandlerWhirlpoolPower
 0005:021C6CE4       EventAddSuperFang
 0005:021C6CF0       HandlerSuperFang
 0005:021C6D2C       EventAddDragonRage
 0005:021C6D38       HandlerDragonRage
 0005:021C6D50       EventAddSonicBoom
 0005:021C6D5C       HandlerSonicBoom
 0005:021C6D74       EventAddEndeavor
 0005:021C6D80       HandlerEndeavorCheckFail
 0005:021C6DD0       HandlerEndeavor
 0005:021C6E1C       EventAddSeismicToss
 0005:021C6E28       HandlerSeismicToss
 0005:021C6E54       EventAddPsywave
 0005:021C6E60       HandlerPsywave
 0005:021C6EA8       EventAddStockpile
 0005:021C6EB4       HandlerStockpileCheckCount
 0005:021C6EE0       HandlerStockpileIncreaseStats
 0005:021C6FF0       EventAddSpitUp
 0005:021C6FFC       HandlerSpitUpStart
 0005:021C7028       HandlerSpitUpPower
 0005:021C7054       HandlerSpitUpResetStats
 0005:021C7158       EventAddSwallow
 0005:021C7164       HandlerSwallow
 0005:021C71A4       EventAddCounter
 0005:021C71B0       HandlerCounterStart
 0005:021C71C0       HandlerCounterSetTarget
 0005:021C71D0       HandlerCounterCalcDamage
 0005:021C71E8       EventAddMirrorCoat
 0005:021C71F4       HandlerMirrorCoatStart
 0005:021C7204       HandlerMirrorCoatSetTarget
 0005:021C7214       HandlerMirrorCoatCalcDamage
 0005:021C722C       EventAddMetalBurst
 0005:021C7238       HandlerMetalBurstStart
 0005:021C7248       HandlerMetalBurstSetTarget
 0005:021C7258       HandlerMetalBurstCalcDamage
 0005:021C7270       CommonCounterStart
 0005:021C72A4       CommonCounterSetTarget
 0005:021C731C       CommonCounterCalcDamage
 0005:021C735C       CommonCounterCheckDamageRecieved
 0005:021C73B8       EventAddLastResort
 0005:021C73C4       HandlerLastResort
 0005:021C7440       EventAddSnore
 0005:021C744C       HandlerSnoreCheck1
 0005:021C7470       HandlerSnoreCheck2
 0005:021C74B8       EventAddNightmare
 0005:021C74C4       HandlerNightmareNoEffect
 0005:021C74F8       EventAddSuckerPunch
 0005:021C7504       HandlerSuckerPunch
 0005:021C758C       EventAddPursuit
 0005:021C7598       HandlerPursuitStart
 0005:021C75F0       HandlerPursuitHitCheck
 0005:021C7614       HandlerPursuitPower
 0005:021C7638       EventAddExplosion
 0005:021C7644       HandlerExplosionDamageDetermine
 0005:021C766C       HandlerExplosionStart
 0005:021C7688       HandlerExplosionEnd
 0005:021C76B0       EventAddFocusEnergy
 0005:021C76BC       HandlerFocusEnergy
 0005:021C7724       EventAddCharge
 0005:021C7730       HandlerCharge
 0005:021C7790       HandlerChargePower
 0005:021C77BC       HandlerChargeStart
 0005:021C77E8       HandlerChargeEnd
 0005:021C7808       EventAddPerishSong
 0005:021C7814       HandlerPerishSongStart
 0005:021C7844       HandlerBypassSubstitute
 0005:021C7870       EventAddLeechSeed
 0005:021C787C       HandlerLeechSeed
 0005:021C78A8       EventAddPayDay
 0005:021C78B4       HandlerPayDay
 0005:021C7904       EventAddRage
 0005:021C7910       HandlerRageStart
 0005:021C7958       HandlerRageBuild
 0005:021C79C0       HandlerRageEnd
 0005:021C79F4       EventAddAquaRing
 0005:021C7A00       HandlerAquaRing
 0005:021C7A60       EventAddThrash
 0005:021C7A6C       HandlerThrash
 0005:021C7AE0       HandlerThrashEnd
 0005:021C7B94       HandlerThrashTurnCheck
 0005:021C7BE8       EventAddUproar
 0005:021C7BF4       HandlerUproar
 0005:021C7D14       HandlerUproarEnd
 0005:021C7D4C       HandlerUproarUnlock
 0005:021C7DEC       HandlerUproarPreventSleep
 0005:021C7E68       EventAddRollout
 0005:021C7E74       HandlerRolloutStart
 0005:021C7EF0       HandlerRolloutMiss
 0005:021C7F14       HandlerRolloutEnd
 0005:021C7F40       HandlerRolloutUnlock
 0005:021C7F78       HandlerRolloutPower
 0005:021C7FD4       EventAddTripleKick
 0005:021C7FE0       HandlerTripleKickPower
 0005:021C8004       HandlerTripleKickHitCount
 0005:021C801C       EventAddGyroBall
 0005:021C8028       HandlerGyroBall
 0005:021C8088       EventAddRevenge
 0005:021C8094       HandlerRevenge
 0005:021C8104       EventAddFlail
 0005:021C8110       HandlerFlail
 0005:021C8174       EventAddFacade
 0005:021C8180       HandlerFacade
 0005:021C81B4       EventAddPayback
 0005:021C81C0       HandlerPayback
 0005:021C81F4       EventAddEruption
 0005:021C8200       HandlerEruption
 0005:021C8254       EventAddCrushGrip
 0005:021C8260       HandlerCrushGrip
 0005:021C82A4       EventAddBrine
 0005:021C82B0       HandlerBrine
 0005:021C82EC       EventAddReturn
 0005:021C82F8       HandlerReturn
 0005:021C8338       EventAddFrustration
 0005:021C8344       HandlerFrustration
 0005:021C8384       EventAddWakeUpSlap
 0005:021C8390       HandlerWakeUpSlapPower
 0005:021C83D4       HandlerWakeUpSlapSleepCure
 0005:021C8420       EventAddSmellingSalts
 0005:021C842C       HandlerSmellingSaltsPower
 0005:021C846C       HandlerSmellingSaltsParaCure
 0005:021C84B8       EventAddPresent
 0005:021C84C4       HandlerPresentRandomCheck
 0005:021C8500       HandlerPresentHeal
 0005:021C8598       HandlerPresentPower
 0005:021C85C8       EventAddTrumpCard
 0005:021C85D4       HandlerTrumpCard
 0005:021C862C       EventAddPunishment
 0005:021C8638       HandlerPunishment
 0005:021C8694       EventAddFuryCutter
 0005:021C86A0       HandlerFuryCutter
 0005:021C86FC       EventAddAssurance
 0005:021C8708       HandlerAssurance
 0005:021C8740       EventAddLowKick
 0005:021C874C       HandlerLowKick
 0005:021C87B4       EventAddWeatherBall
 0005:021C87C0       HandlerWeatherBallType
 0005:021C87F6       jpt_21C87F4
 0005:021C8816       def_21C87F4
 0005:021C8828       HandlerWeatherBallPower
 0005:021C8854       EventAddTwister
 0005:021C8860       HandlerTwisterFlyCheck
 0005:021C8884       HandlerTwisterPower
 0005:021C88BC       EventAddSkyUppercut
 0005:021C88C8       HandlerSkyUppercut
 0005:021C88EC       EventAddThunder
 0005:021C88F8       HandlerThunderFlyCheck
 0005:021C891C       HandlerThunderRainCheck
 0005:021C8940       HandlerThunderSunCheck
 0005:021C8964       EventAddBlizzard
 0005:021C8970       HandlerBlizzard
 0005:021C8994       EventAddEarthquake
 0005:021C89A0       HandlerEarthquakeDigCheck
 0005:021C89C4       HandlerEarthquakeDamage
 0005:021C89FC       EventAddJudgment
 0005:021C8A08       HandlerJudgment
 0005:021C8A4C       jpt_21C8A4A
 0005:021C8AAA       def_21C8A4A
 0005:021C8AB8       EventAddTechnoBlast
 0005:021C8AC4       HandlerTechnoBlast
 0005:021C8B08       jpt_21C8B06
 0005:021C8B26       def_21C8B06
 0005:021C8B38       EventAddHiddenPower
 0005:021C8B44       HandlerHiddenPowerType
 0005:021C8B70       HandlerHiddenPowerPower
 0005:021C8B9C       EventAddNaturalGift
 0005:021C8BA8       HandlerNaturalGiftCheckFail
 0005:021C8C04       HandlerNaturalGiftType
 0005:021C8C34       HandlerNaturalGiftPower
 0005:021C8C64       HandlerNaturalGiftEnd
 0005:021C8C8C       EventAddKnockOff
 0005:021C8C98       HandlerKnockOff
 0005:021C8D20       EventAddMagicCoat
 0005:021C8D2C       HandlerMagicCoatCheckFail
 0005:021C8D74       HandlerMagicCoat
 0005:021C8DBC       HandlerMagicCoatWait
 0005:021C8DC4       HandlerMagicCoatReflect
 0005:021C8DF4       HandlerMagicCoatTurnCheck
 0005:021C8E0C       EventAddSnatch
 0005:021C8E18       HandlerSnatch
 0005:021C8E68       HandlerSnatchCheckMoveEffect
 0005:021C8EC0       HandlerSnatchStealMove
 0005:021C8F1C       HandlerSnatchTurnCheck
 0005:021C8F34       EventAddThief
 0005:021C8F40       HandlerThiefStart
 0005:021C8F6C       HandlerThief
 0005:021C902C       EventAddTrick
 0005:021C9038       HandlerTrick
 0005:021C9170       EventAddMagnitude
 0005:021C917C       HandlerMagnitudeEffect
 0005:021C91E4       HandlerMagnitudePower
 0005:021C9208       EventAddSurf
 0005:021C9214       HandlerSurfDiveCheck
 0005:021C9238       HandlerSurfPower
 0005:021C9270       EventAddStomp
 0005:021C927C       HandlerStomp
 0005:021C92B4       EventAddFalseSwipe
 0005:021C92C0       HandlerFalseSwipe
 0005:021C92E4       EventAddEndure
 0005:021C92F0       HandlerEndure
 0005:021C933C       HandlerEndureCheck
 0005:021C9368       HandlerEndureTurnCheck
 0005:021C9380       EventAddProtect
 0005:021C938C       HandlerProtectStart
 0005:021C93DC       HandlerProtectCheckFail
 0005:021C9434       HandlerProtectResetCounter
 0005:021C946C       HandlerProtect
 0005:021C94D4       IncrementProtectCounter
 0005:021C951C       EventAddBide
 0005:021C9528       HandlerBide
 0005:021C95B0       HandlerBideTextSet
 0005:021C9610       HandlerBideCheckFail
 0005:021C9644       HandlerBideTarget
 0005:021C9678       HandlerBideDamageRecieved
 0005:021C96A8       HandlerBideCalcDamage
 0005:021C96DC       HandlerBideFail
 0005:021C96FC       GetBideTargetID
 0005:021C9780       BideEnd
 0005:021C97B0       EventAddRecycle
 0005:021C97BC       HandlerRecycle
 0005:021C982C       EventAddPsychoShift
 0005:021C9838       HandlerPsychoShift
 0005:021C98EC       EventAddPainSplit
 0005:021C98F8       HandlerPainSplit
 0005:021C99C0       EventAddBellyDrum
 0005:021C99CC       HandlerBellyDrum
 0005:021C9A8C       EventAddFeint
 0005:021C9A98       HandlerFeintBreakProtect
 0005:021C9AB0       HandlerFeintTextSet
 0005:021C9B28       HandlerFeintResetProtectCounter
 0005:021C9BAC       EventAddAcupressure
 0005:021C9BB8       HandlerAcupressure
 0005:021C9C74       EventAddRest
 0005:021C9C80       HandlerRestCheckFail
 0005:021C9D04       HandlerRest
 0005:021C9DD0       EventAddAttract
 0005:021C9DDC       HandlerAttractCheckFail
 0005:021C9E38       EventAddConversion2
 0005:021C9E44       HandlerConversion2
 0005:021C9EF4       EventAddEncore
 0005:021C9F00       HandlerEncore
 0005:021C9FB0       j_j_IsEncoreFailMove
 0005:021C9FB4       j_IsEncoreFailMove
 0005:021C9FC0       EventAddTaunt
 0005:021C9FCC       HandlerTaunt
 0005:021CA038       EventAddTorment
 0005:021CA044       HandlerTorment
 0005:021CA094       EventAddDisable
 0005:021CA0A0       HandlerDisable
 0005:021CA12C       EventAddImprison
 0005:021CA138       HandlerImprison
 0005:021CA198       EventAddAromatherapy
 0005:021CA1A4       HandlerAromatherapy
 0005:021CA1B4       EventAddHealBell
 0005:021CA1C0       HandlerHealBell
 0005:021CA1D0       CommonCureAllyMonStatus
 0005:021CA280       CheckMonStatus
 0005:021CA2DC       EventAddMemento
 0005:021CA2E8       HandlerMemento
 0005:021CA36C       EventAddSpite
 0005:021CA378       HandlerSpite
 0005:021CA41C       EventAddPsychUp
 0005:021CA428       HandlerPsychUp
 0005:021CA4E0       EventAddHeartSwap
 0005:021CA4EC       HandlerHeartSwap
 0005:021CA604       EventAddPowerSwap
 0005:021CA610       HandlerPowerSwap
 0005:021CA730       EventAddGuardSwap
 0005:021CA73C       HandlerGuardSwap
 0005:021CA860       EventAddPowerTrick
 0005:021CA86C       HandlerPowerTrick
 0005:021CA8F8       EventAddPowerSplit
 0005:021CA904       HandlerPowerSplit
 0005:021CA9E8       EventAddGuardSplit
 0005:021CA9F4       HandlerGuardSplit
 0005:021CAAD0       EventAddLockOn
 0005:021CAADC       HandlerLockOn
 0005:021CAB40       EventAddReflect
 0005:021CAB4C       HandlerReflect
 0005:021CAB84       EventAddLightScreen
 0005:021CAB90       HandlerLightScreen
 0005:021CABC8       EventAddSafeguard
 0005:021CABD4       HandlerSafeguard
 0005:021CAC0C       EventAddMist
 0005:021CAC18       HandlerMist
 0005:021CAC50       EventAddTailwind
 0005:021CAC5C       HandlerTailwind
 0005:021CAC94       EventAddLuckyChant
 0005:021CACA0       HandlerLuckyChant
 0005:021CACD8       EventAddSpikes
 0005:021CACE4       HandlerSpikes
 0005:021CAD18       EventAddToxicSpikes
 0005:021CAD24       HandlerToxicSpikes
 0005:021CAD58       EventAddStealthRock
 0005:021CAD64       HandlerStealthRock
 0005:021CAD98       EventAddWideGuard
 0005:021CADA4       HandlerWideGuard
 0005:021CADE4       CommonCreateSideEffect
 0005:021CAE30       EventAddTransform
 0005:021CAE3C       HandlerTransform
 0005:021CAE8C       EventAddLunarDance
 0005:021CAE98       HandlerLunarDance
 0005:021CAEEC       EventAddHealingWish
 0005:021CAEF8       HandlerHealingWish
 0005:021CAF4C       EventAddWish
 0005:021CAF58       HandlerWish
 0005:021CAF8C       EventAddFutureSight
 0005:021CAF98       HandlerFutureSight
 0005:021CAFC0       HandlerFutureSightLand
 0005:021CAFFC       CommonDelayAttack
 0005:021CB06C       EventAddDoomDesire
 0005:021CB078       HandlerDoomDesire
 0005:021CB0A0       HandlerDoomDesireLand
 0005:021CB0DC       EventAddGastroAcid
 0005:021CB0E8       HandlerGastroAcid
 0005:021CB144       EventAddRolePlay
 0005:021CB150       HandlerRolePlay
 0005:021CB1D0       j_j_IsRolePlayFailAbility
 0005:021CB1D4       j_IsRolePlayFailAbility
 0005:021CB1E0       EventAddUturn
 0005:021CB1EC       HandlerUturn
 0005:021CB2A0       EventAddRapidSpin
 0005:021CB2AC       HandlerRapidSpin
 0005:021CB3B4       j_j_BattleSideStatus_IsEffectActive_1
 0005:021CB3B8       j_BattleSideStatus_IsEffectActive_1
 0005:021CB3C4       j_j_BattleSideStatus_IsEffectActive_2
 0005:021CB3C8       j_BattleSideStatus_IsEffectActive_2
 0005:021CB3D4       j_j_BattleSideStatus_IsEffectActive_3
 0005:021CB3D8       j_BattleSideStatus_IsEffectActive_3
 0005:021CB3E4       EventAddBatonPass
 0005:021CB3F0       HandlerBatonPass
 0005:021CB484       EventAddTeleport
 0005:021CB490       HandlerTeleportCheckFail
 0005:021CB4DC       HandlerTeleport
 0005:021CB500       HandlerTeleportExitText
 0005:021CB540       EventAddFling
 0005:021CB54C       HandlerFlingCheckFail
 0005:021CB59C       HandlerFlingPower
 0005:021CB5CC       HandlerFlingStart
 0005:021CB624       HandlerFlingDamageAfter
 0005:021CB6A4       HandlerFlingEnd
 0005:021CB6E8       EventAddMagnetRise
 0005:021CB6F4       HandlerMagnetRiseCheckFail
 0005:021CB730       HandlerMagnetRise
 0005:021CB784       EventAddHelpingHand
 0005:021CB790       HandlerHelpingHandSkip
 0005:021CB7A8       HandlerHelpingHandCheckInvuln
 0005:021CB7C0       HandlerHelpingHandReady
 0005:021CB848       HandlerHelpingHandPower
 0005:021CB864       HandlerHelpingHandTurnCheck
 0005:021CB87C       EventAddBeatUp
 0005:021CB888       HandlerBeatUp
 0005:021CB8CC       HandlerBeatUpPower
 0005:021CB920       CommonBeatUpGetParam
 0005:021CB998       EventAddFakeOut
 0005:021CB9A4       HandlerFakeOut
 0005:021CB9D0       EventAddMorningSun
 0005:021CB9DC       HandlerMorningSun
 0005:021CBA04       jpt_21CBA02
 0005:021CBA16       def_21CBA02
 0005:021CBA28       EventAddFly
 0005:021CBA34       HandlerFly
 0005:021CBA88       nullsub_36
 0005:021CBA8C       EventAddShadowForce
 0005:021CBA98       HandlerShadowForce
 0005:021CBAEC       nullsub_37
 0005:021CBAF0       HandlerShadowForceEnd
 0005:021CBB60       EventAddBounce
 0005:021CBB6C       HandlerBounce
 0005:021CBBC0       nullsub_38
 0005:021CBBC4       EventAddDive
 0005:021CBBD0       HandlerDive
 0005:021CBC24       nullsub_39
 0005:021CBC28       EventAddDig
 0005:021CBC34       HandlerDig
 0005:021CBC8C       EventAddSolarBeam
 0005:021CBC98       HandlerSolarBeamSunCheck
 0005:021CBCBC       HandlerSolarBeamCharge
 0005:021CBCF8       HandlerSolarBeamPower
 0005:021CBD24       EventAddRazorWind
 0005:021CBD30       HandlerRazorWindCharge
 0005:021CBD6C       EventAddSkyAttack
 0005:021CBD78       HandlerSkyAttack
 0005:021CBDB4       EventAddSkullBash
 0005:021CBDC0       HandlerSkullBash
 0005:021CBE1C       EventAddPluck
 0005:021CBE28       HandlerPluck
 0005:021CBEC0       EventAddStruggle
 0005:021CBECC       HandlerStruggleRecoil
 0005:021CBEE4       HandlerStruggleStart
 0005:021CBF20       HandlerStruggleMoveParam
 0005:021CBF38       EventAddDestinyBond
 0005:021CBF44       HandlerDestinyBondReady
 0005:021CBF88       HandlerDestinyBondStart
 0005:021CBFA0       HandlerDestinyBondDamage
 0005:021CC05C       j_j_IsDelayedHitMove_3
 0005:021CC060       j_IsDelayedHitMove_3
 0005:021CC06C       EventAddGrudge
 0005:021CC078       HandlerGrudgeReady
 0005:021CC0B8       HandlerGrudgeReducePP
 0005:021CC180       j_j_IsDelayedHitMove_4
 0005:021CC184       j_IsDelayedHitMove_4
 0005:021CC190       EventAddMinimize
 0005:021CC19C       HandlerMinimize
 0005:021CC1C8       EventAddDefenseCurl
 0005:021CC1D4       HandlerDefenseCurl
 0005:021CC200       EventAddRoost
 0005:021CC20C       HandlerRoost
 0005:021CC254       EventAddFocusPunch
 0005:021CC260       HandlerFocuspunch
 0005:021CC2F0       EventAddMetronome
 0005:021CC2FC       HandlerMetronome
 0005:021CC340       j_j_Tables_GetMetronomeUncallableMoveTable
 0005:021CC344       j_Tables_GetMetronomeUncallableMoveTable
 0005:021CC350       HandlerMetronomeTextSet
 0005:021CC38C       EventAddNaturePower
 0005:021CC398       HandlerNaturePower
 0005:021CC3BE       jpt_21CC3BC
 0005:021CC3EA       def_21CC3BC
 0005:021CC42C       HandlerNaturePowerTextSet
 0005:021CC468       EventAddAssist
 0005:021CC474       HandlerAssist
 0005:021CC540       j_j_IsAssistFailMove
 0005:021CC544       j_IsAssistFailMove
 0005:021CC550       EventAddSleepTalk
 0005:021CC55C       HandlerSleepTalk
 0005:021CC610       j_j_IsSleepTalkUncallableMove
 0005:021CC614       j_IsSleepTalkUncallableMove
 0005:021CC620       EventAddMirrorMove
 0005:021CC62C       HandlerMirrorMove
 0005:021CC6AC       EventAddMeFirst
 0005:021CC6B8       HandlerMeFirst
 0005:021CC784       j_j_IsMeFirstFailMove
 0005:021CC788       j_IsMeFirstFailMove
 0005:021CC794       HandlerMeFirstPower
 0005:021CC7B0       EventAddCopycat
 0005:021CC7BC       HandlerCopycat
 0005:021CC7FC       j_j_IsNotAllowedCopycatMove
 0005:021CC800       j_IsNotAllowedCopycatMove
 0005:021CC80C       EventAddAncientPower
 0005:021CC818       HandlerAncientPower
 0005:021CC83C       EventAddVenoshock
 0005:021CC848       HandlerVenoshock
 0005:021CC880       EventAddHex
 0005:021CC88C       HandlerHex
 0005:021CC8C0       EventAddAcrobatics
 0005:021CC8CC       HandlerAcrobatics
 0005:021CC8F4       EventAddStoredPower
 0005:021CC900       HandlerStoredPower
 0005:021CC958       EventAddHeavySlam
 0005:021CC964       HandlerHeavySlam
 0005:021CC9D8       EventAddElectroBall
 0005:021CC9E4       HandlerElectroBall
 0005:021CCA58       EventAddEchoedVoice
 0005:021CCA64       HandlerEchoedVoice
 0005:021CCAB8       jpt_21CCAB6
 0005:021CCAD0       def_21CCAB6
 0005:021CCAE0       j_j_MoveRecord_IsUsedMove
 0005:021CCAE4       j_MoveRecord_IsUsedMove
 0005:021CCAF0       EventAddRetaliate
 0005:021CCAFC       HandlerRetaliate
 0005:021CCB54       j_j_FaintRecord_GetCount
 0005:021CCB58       j_FaintRecord_GetCount
 0005:021CCB64       j_j_FaintRecord_GetPokeID
 0005:021CCB68       j_FaintRecord_GetPokeID
 0005:021CCB74       EventAddFoulPlay
 0005:021CCB80       HandlerFoulPlay
 0005:021CCBA0       EventAddSoak
 0005:021CCBAC       HandlerSoak
 0005:021CCBFC       EventAddSimpleBeam
 0005:021CCC08       HandlerSimpleBeam
 0005:021CCC94       EventAddEntrainment
 0005:021CCCA0       HandlerEntrainment
 0005:021CCD48       j_j_j_IsTraceFailAbility_1
 0005:021CCD4C       j_j_IsTraceFailAbility_1
 0005:021CCD58       EventAddClearSmog
 0005:021CCD64       HandlerClearSmog
 0005:021CCDC8       EventAddIncinerate
 0005:021CCDD4       HandlerIncinerate
 0005:021CCE54       EventAddCircleThrow
 0005:021CCE60       HandlerCircleThrow
 0005:021CCEA8       EventAddSmackDown
 0005:021CCEB4       HandlerSmackDown
 0005:021CCFD4       EventAddShellSmash
 0005:021CCFE0       HandlerShellSmash
 0005:021CD090       EventAddReflectType
 0005:021CD09C       HandlerReflectType
 0005:021CD124       EventAddAutotomize
 0005:021CD130       HandlerAutotomize
 0005:021CD198       EventAddPsyshock
 0005:021CD1A4       HandlerPsyshock
 0005:021CD1D0       EventAddChipAway
 0005:021CD1DC       HandlerChipAwayCalcDamage
 0005:021CD1F4       HandlerChipAwayHitCheck
 0005:021CD20C       EventAddWonderRoom
 0005:021CD218       HandlerWonderRoom
 0005:021CD27C       EventAddMagicRoom
 0005:021CD288       HandlerMagicRoom
 0005:021CD2EC       EventAddFlameBurst
 0005:021CD2F8       HandlerFlameBurst
 0005:021CD3B4       EventAddSynchronoise
 0005:021CD3C0       HandlerSynchronoise
 0005:021CD40C       EventAddBestow
 0005:021CD418       HandlerBestow
 0005:021CD4EC       EventAddFinalGambit
 0005:021CD4F8       HandlerFinalGambit
 0005:021CD520       EventAddAfterYou
 0005:021CD52C       HandlerAfterYou
 0005:021CD574       EventAddQuash
 0005:021CD580       HandlerQuash
 0005:021CD5C8       EventAddRound
 0005:021CD5D4       HandlerRound
 0005:021CD620       j_j_GetUsedMoveCount
 0005:021CD624       j_GetUsedMoveCount
 0005:021CD630       HandlerRoundPower
 0005:021CD670       j_j_GetUsedMoveCount_0
 0005:021CD674       j_GetUsedMoveCount_0
 0005:021CD680       EventAddQuickGuard
 0005:021CD68C       HandlerQuickGuard
 0005:021CD6CC       EventAddAllySwitch
 0005:021CD6D8       HandlerAllySwitch
 0005:021CD790       EventAddTelekinesis
 0005:021CD79C       HandlerTelekinesisCheckFail
 0005:021CD7EC       HandlerTelekinesis
 0005:021CD828       EventAddSkyDrop
 0005:021CD834       HandlerSkyDropGrabFail
 0005:021CD864       HandlerSkyDropGrab
 0005:021CD8F0       HandlerSkyDropRelease
 0005:021CD940       HandlerSkyDropTarget
 0005:021CD984       HandlerSkyDropCheckFail
 0005:021CD9CC       HandlerSkyDropTypeCheck
 0005:021CDA04       EventAddRelicSong
 0005:021CDA10       HandlerRelicSong
 0005:021CDA74       EventAddForesight
 0005:021CDA80       HandlerForesight
 0005:021CDAAC       EventAddMiracleEye
 0005:021CDAB8       HandlerMiracleEye
 0005:021CDAE4       EventAddGrowth
 0005:021CDAF0       HandlerGrowth
 0005:021CDB20       EventAddFreezeShock
 0005:021CDB2C       HandlerFreezeShock
 0005:021CDB84       EventAddFusionFlare
 0005:021CDB90       HandlerFusionFlare
 0005:021CDBF4       j_j_MoveRecord_GetPrevEffectiveMove
 0005:021CDBF8       j_MoveRecord_GetPrevEffectiveMove
 0005:021CDC04       GetComboMoveType
 0005:021CDC40       EventAddWaterPledge
 0005:021CDC4C       HandlerWaterPledgeCheck
 0005:021CDCC0       HandlerWaterPledgeDecide
 0005:021CDCF8       HandlerWaterPledgeTypeMatch
 0005:021CDD18       HandlerWaterPledgePower
 0005:021CDD38       HandlerWaterPledgeChangeEffect
 0005:021CDD7C       HandlerWaterPledgeFieldEffect
 0005:021CDE78       HandlerCommon_CheckTargetMonID
 0005:021CDEA4       HandlerCommon_IsMonLastInTurnOrder
 0005:021CDEB8       HandlerCommon_IsUnremovableItem
 0005:021CDEFC       j_j_IsArceusPlate
 0005:021CDF00       j_IsArceusPlate
 0005:021CDF0C       j_j_Tables_IsGenesectDrive
 0005:021CDF10       j_Tables_IsGenesectDrive
 0005:021CDF1C       HandlerCommon_CheckUnchangeableItem
 0005:021CDF48       HandlerCommon_CheckIfCanStealWildPokeItem
 0005:021CDF68       HandlerCommon_CheckIfCanStealPokeItem
 0005:021CDFC4       HandlerCommon_MagicCoatCheckMoveEffect
 0005:021CE018       HandlerCommon_MagicCoatWait
 0005:021CE084       HandlerCommon_MagicCoatReaction
 0005:021CE0E0       HandlerCommon_MultiplyBasePower
 0005:021CE0F8       HandlerCommon_RunCalcSkip
 0005:021CE11C       HandlerCommon_CheckRunMessage
 0005:021CE198       Condition_MakeNull
 0005:021CE1A8       Condition_IsNull
 0005:021CE1C0       Condition_MakeTurn
 0005:021CE1EC       Condition_MakeTurnParam
 0005:021CE21C       Condition_MakePoke
 0005:021CE240       Condition_MakePermanent
 0005:021CE254       Condition_MakePermanentParam
 0005:021CE278       Condition_MakePermanentIncParam
 0005:021CE2A8       Condition_MakePokeTurn
 0005:021CE2D8       Condition_MakeBadlyPoisoned
 0005:021CE2F8       Condition_IsBadlyPoisoned
 0005:021CE318       Condition_GetMonID
 0005:021CE348       Condition_SetMonID
 0005:021CE37C       Condition_GetTurnMax
 0005:021CE3A8       Condition_AddParam
 0005:021CE400       Condition_GetParam
 0005:021CE450       Condition_SetFlag
 0005:021CE4A4       Condition_GetFlag
 0005:021CE4D0       Condition_IncrementTurn
 0005:021CE51C       Condition_SetTurn
 0005:021CE560       PokeTypePair_Make
 0005:021CE570       PokeTypePair_MakeMonotype
 0005:021CE57C       PokeTypePair_GetType1
 0005:021CE584       PokeTypePair_GetType2
 0005:021CE58C       PokeTypePair_LoadTypes
 0005:021CE5A4       PokeTypePair_HasType
 0005:021CE5C8       PokeTypePair_HasSharedType
 0005:021CE628       PokeTypePair_IsMonotype
 0005:021CE644       LoadBattleOverlays
 0005:021CE678       UnloadBattleOverlays
 0005:021CE784       setup
 0005:021CE7A0       BtlvCore_Create
 0005:021CE8A0       j_j_BtlvScd_Create
 0005:021CE8A4       j_BtlvScd_Create
 0005:021CE8B0       BtlvCore_Free
 0005:021CE8F8       j_j_BtlvScd_Free
 0005:021CE8FC       j_BtlvScd_Free
 0005:021CE908       BtlvCore_Update
 0005:021CE91C       BtlvCore_SetFuncForBattleMode
 0005:021CE94C       BtlvCore_ExecuteFuncForBattleMode
 0005:021CE980       BtlvCore_SetupBattleScene
 0005:021CEA44       j_j_BtlvScd_CreateBtlvInput
 0005:021CEA48       j_BtlvScd_CreateBtlvInput
 0005:021CEA54       j_j_BtlvScd_SetupVsRecorderBottomScreen
 0005:021CEA58       j_BtlvScd_SetupVsRecorderBottomScreen
 0005:021CEA64       BtlvCore_CatchingTutorialSequence
 0005:021CEA76       def_21CEA80
 0005:021CEA82       jpt_21CEA80
 0005:021CEE70       j_j_BtlvScd_CreateBtlvInput_0
 0005:021CEE74       j_BtlvScd_CreateBtlvInput_0
 0005:021CEF00       BtlvCore_GetBattleMonAtPos
 0005:021CF02C       BattleViewCmd_UI_SelectAction_Start
 0005:021CF068       BattleViewCmd_UI_SelectAction_ForceQuit
 0005:021CF070       BattleViewCmd_UI_SelectAction_Wait
 0005:021CF088       BattleViewCmd_UI_SelectMove_Start
 0005:021CF124       BattleViewCmd_UI_SelectMove_Restart
 0005:021CF178       BattleViewCmd_UI_SelectMove_ForceQuit
 0005:021CF180       BattleViewCmd_UI_SelectMove_Wait
 0005:021CF188       BattleViewCmd_UI_SelectTarget_Start
 0005:021CF1B4       BattleViewCmd_UI_SelectTarget_Wait
 0005:021CF1EC       BattleViewCmd_UI_SelectTarget_ForceQuit
 0005:021CF230       BattleClientCmd_UIRestart
 0005:021CF240       BattleViewCmd_UIWaitRestart
 0005:021CF274       StartBottomScreenMenu
 0005:021CF360       BattleClientCmd_StartPokeSelect
 0005:021CF3DC       j_j_PokeSelectResult_GetCount_0
 0005:021CF3E0       j_PokeSelectResult_GetCount_0
 0005:021CF3EC       j_j_PokeSelectResult_Get
 0005:021CF3F0       j_PokeSelectResult_Get
 0005:021CF3FC       BattleClientCmd_QuitPokeSelect
 0005:021CF408       BattleClientCmd_WaitPokeSelect
 0005:021CF426       jpt_21CF424
 0005:021CF524       def_21CF424
 0005:021CF578       j_j_PokeSelectResult_Push
 0005:021CF57C       j_PokeSelectResult_Push
 0005:021CF588       j_j_PokeSelectResult_GetCount
 0005:021CF58C       j_PokeSelectResult_GetCount
 0005:021CF5C8       BattleClientCmd_StartMoveInfoView
 0005:021CF5EC       BattleViewCmd_StartItemSelect
 0005:021CF77C       BattleViewCmd_StartBattleBag
 0005:021CF798       jpt_21CF796
 0005:021CF898       def_21CF796
 0005:021CF8D8       j_j_Tables_IsEscapeItem
 0005:021CF8DC       j_Tables_IsEscapeItem
 0005:021CF918       BattleViewCmd_ItemSelect_GetItemID
 0005:021CF940       BattleViewCmd_ItemSelect_GetTargetIdx
 0005:021CF948       BattleViewCmd_ItemSelect_GetMoveIdx
 0005:021CF954       BattleViewCmd_ItemSelect_ReflectUsedItem
 0005:021CFA00       BattleViewCmd_ForceQuitPartyMenu
 0005:021CFA0C       StartPartyMenu
 0005:021CFA26       jpt_21CFA24
 0005:021CFABE       def_21CFA24
 0005:021CFB9A       jpt_21CFB98
 0005:021CFC32       def_21CFB98
 0005:021CFCA0       BattleViewCmd_MoveEffect_Start
 0005:021CFCE4       BattleViewCmd_MoveEffect_Wait
 0005:021CFCF4       BattleViewCmd_SingleHitAnim_Start
 0005:021CFD60       BattleViewCmd_SingleHitAnim_Wait
 0005:021CFE80       BattleViewCmd_MultiHitAnim_Start
 0005:021CFEBC       BattleViewCmd_MultiHitAnim_Wait
 0005:021CFF2C       BtlvCore_ChooseHitSoundEffect
 0005:021CFF54       BattleViewCmd_Hide
 0005:021CFF84       BattleViewCmd_SimpleHPEffect_Start
 0005:021CFFA0       BattleViewCmd_SimpleHPEffect_Wait
 0005:021CFFB8       BattleViewCmd_AddAnimByPos
 0005:021CFFD4       BattleViewCmd_WaitAnimByPos
 0005:021CFFE8       BattleViewCmd_AddAnimByDir
 0005:021CFFF8       BattleViewCmd_WaitAnimByDir
 0005:021D0058       BattleViewCmd_SwitchOut_Start
 0005:021D0078       BattleViewCmd_SwitchOut_Wait
 0005:021D0176       jpt_21D0174
 0005:021D01FA       def_21D0174
 0005:021D0274       BattleViewCmd_StartMessage
 0005:021D0290       BattleViewCmd_StartMessageStandard
 0005:021D02AC       ServerCommand_SetMessageCore
 0005:021D030C       BattleViewCmd_StartMoveMessage
 0005:021D0328       BattleViewCmd_WaitMessage
 0005:021D0338       BattleViewCmd_WaitMessage_WithoutHide
 0005:021D0380       BattleViewCmd_AbilityPopup_DisplayStart
 0005:021D0390       BattleViewCmd_AbilityPopup_DisplayWait
 0005:021D03A0       BattleViewCmd_QuitAbilityPopupWait
 0005:021D03B0       BattleViewCmd_QuitAbilityPopup
 0005:021D03C0       BattleViewCmd_AbilityPopup_Renew_Start
 0005:021D0414       BattleViewCmd_StartCommWait
 0005:021D042C       BattleViewCmd_WaitCommWait
 0005:021D043C       BattleViewCmd_ResetCommWaitInfo
 0005:021D0450       BattleViewCmd_UseItem_Start
 0005:021D0468       BattleViewCmd_UseItem_Wait
 0005:021D0480       BattleViewCmd_IllusionBreak_Start
 0005:021D0490       BattleViewCmd_IllusionBreak_Wait
 0005:021D04A0       BattleViewCmd_ChangeForm_Start
 0005:021D04BC       BattleViewCmd_ChangeForm_Wait
 0005:021D07D8       BattleViewCmd_YesNo_Start
 0005:021D0868       BattleViewCmd_YesNo_Wait
 0005:021D0878       BattleViewCmd_ForgetMove_Start
 0005:021D08AE       jpt_21D08AC
 0005:021D0930       def_21D08AC
 0005:021D0A58       BattleClientCmd_ForceQuitInputNotify
 0005:021D0A68       BattleClientCmd_ForceQuitInputWait
 0005:021D0AAC       j_j_BtlvScd_SetupVsRecorderBottomScreen_0
 0005:021D0AB0       j_BtlvScd_SetupVsRecorderBottomScreen_0
 0005:021D0B04       j_j_BtlvScd_SetupVsRecorderBottomScreen_1
 0005:021D0B08       j_BtlvScd_SetupVsRecorderBottomScreen_1
 0005:021D0B14       BtlvCore_PlaySoundEffect
 0005:021D0B2C       Btlv_StringParam_Setup
 0005:021D0B64       Btlv_StringParam_AddArg
 0005:021D0B8C       Btlv_StringParam_SetWait
 0005:021D0C64       BtlvScu_Create
 0005:021D0D14       BtlvScu_CreateBG
 0005:021D0F68       BtlvScu_LoadBGNCGR
 0005:021D0FC4       BtlvScu_Free
 0005:021D10FC       jpt_21D10FA
 0005:021D1114       jpt_21D1112
 0005:021D111E       def_21D1112
 0005:021D1172       def_21D10FA
 0005:021D1174       def_21D117E
 0005:021D1180       jpt_21D117E
 0005:021D1474       jpt_21D1472
 0005:021D14CA       def_21D1472
 0005:021D166E       jpt_21D166C
 0005:021D1890       def_21D166C
 0005:021D1926       def_21D1930
 0005:021D1932       jpt_21D1930
 0005:021D1DC4       jpt_21D1DC2
 0005:021D1EF8       def_21D1DC2
 0005:021D1F7C       jpt_21D1F7A
 0005:021D2060       def_21D1F7A
 0005:021D208C       jpt_21D208A
 0005:021D2196       def_21D208A
 0005:021D21B8       jpt_21D21B6
 0005:021D227E       def_21D21B6
 0005:021D22E4       jpt_21D22E2
 0005:021D240A       def_21D22E2
 0005:021D2438       jpt_21D2436
 0005:021D2560       def_21D2436
 0005:021D258C       jpt_21D258A
 0005:021D26FA       def_21D258A
 0005:021D2718       def_21D2722
 0005:021D2724       jpt_21D2722
 0005:021D287E       jpt_21D287C
 0005:021D28D2       def_21D287C
 0005:021D2A1E       jpt_21D2A1C
 0005:021D2A74       def_21D2A1C
 0005:021D2BE6       jpt_21D2BE4
 0005:021D2C46       def_21D2BE4
 0005:021D2DC2       jpt_21D2DC0
 0005:021D2DCA       def_21D2DC0
 0005:021D2F36       jpt_21D2F34
 0005:021D30C2       def_21D2F34
 0005:021D30D4       CMD_ACT_MoveAnimStart
 0005:021D3240       BattleViewCmd_IsWaitingEffect
 0005:021D37EE       jpt_21D37EC
 0005:021D384A       def_21D37EC
 0005:021D3C82       def_21D3C8C
 0005:021D3C8E       jpt_21D3C8C
 0005:021D3F98       def_21D3FA2
 0005:021D3FA4       jpt_21D3FA2
 0005:021D41F8       nullsub_32
 0005:021D43D6       jpt_21D43D4
 0005:021D447E       def_21D43D4
 0005:021D45F0       RecData_Init
 0005:021D4630       RecData_Write
 0005:021D4664       RecData_GetTimingCode
 0005:021D46E4       BattleRecReader_ReadAction
 0005:021D4A5C       BtlNet_InitializeListener
 0005:021D4AFC       Adapter_Init
 0005:021D4B58       Adapter_IsWaitingClientReply
 0005:021D4C4C       Adapter_GetReceivedData
 0005:021D59A8       BattleField_ClearFactorWork
 0005:021D59E0       BattleField_Clear
 0005:021D59F0       BattleField_GetWeather
 0005:021D5A00       BattleField_GetWeatherTurns
 0005:021D5A10       BattleField_SetWeather
 0005:021D5A24       BattleField_TurnCheckWeather
 0005:021D5A34       BattleField_AddEffect
 0005:021D5A54       BattleField_RemoveEffect
 0005:021D5A64       BattleField_AddDependPoke
 0005:021D5A78       BattleField_RemoveDependPokeEffect
 0005:021D5A88       BattleField_CheckImprison
 0005:021D5AA0       BattleField_TurnCheck
 0005:021D5AB4       BattleField_CheckEffect
 0005:021D5AC4       BattleField_Init
 0005:021D5AEC       BattleField_Free
 0005:021D5AF4       BattleField_InitCore
 0005:021D5B14       BattleField_GetWeatherCore
 0005:021D5B1C       BattleField_GetWeatherTurnsCore
 0005:021D5B2C       BattleField_SetWeatherCore
 0005:021D5B34       BattleField_EndWeather
 0005:021D5B3C       BattleField_TurnCheckWeatherCore
 0005:021D5B60       BattleField_AddEffectCore
 0005:021D5BF0       j_j_FieldEffectEvent_AddItem
 0005:021D5BF4       j_FieldEffectEvent_AddItem
 0005:021D5C00       BattleField_RemoveEffectCore
 0005:021D5C34       j_j_j_BattleEventItem_Remove_0
 0005:021D5C38       j_j_BattleEventItem_Remove_0
 0005:021D5C44       BattleField_AddDependPokeCore
 0005:021D5CA0       BattleField_RemoveDependPokeEffectCore
 0005:021D5D78       j_j_j_BattleEventItem_Remove_0_0
 0005:021D5D7C       j_j_BattleEventItem_Remove_0_0
 0005:021D5D88       BattleField_CheckImprisonCore
 0005:021D5DE4       BattleField_TurnCheckCore
 0005:021D5E40       j_j_j_BattleEventItem_Remove_0_1
 0005:021D5E44       j_j_BattleEventItem_Remove_0_1
 0005:021D5E50       BattleField_CheckFieldEffectCore
 0005:021D5EF0       jpt_21D5EEE
 0005:021D5FFA       def_21D5EEE
 0005:021D6800       denominator
 0005:021D6E18       BH_WORK_SIZE_TABLE
 0005:021D6F5C       aRw
 0005:021D71A0       BTLCLIENT_SERVERCMD_FUNCTIONS
 0005:021D74D0       HIDE_CONDITION_FLAGS
 0005:021D74E0       CRIT_STAGE_CHANCES
 0005:021D7F38       ABILITY_EVENT_ADD_TABLE
 0005:021D8428       STAT_STAGE_TABLE
 0005:021D8F68       ITEM_EVENT_ADD_TABLE
 0005:021D94C8       BATTLE_MON_STAT_STAGE_VALUES
 0005:021D9910       PROTECT_COUNTER_MOVES
 0005:021D9924       TRUMP_CARD_POWER
 0005:021D9930       TRI_ATTACK_STATUSES
 0005:021D993C       MAGNITUDE_POWER_TABLE
 0005:021D9D6C       FLAIL_POWER_TABLE
 0005:021D9DB4       COMBO_MOVE_TABLE
 0005:021DA0F4       MOVE_EVENT_ADD_TABLE
 0005:021DA914       cfg
 0005:021DAEC0       aBtlMainC
 0005:021DAECC       aBtlServerC
 0005:021DAEDC       aBtlServerFlowC
 0005:021DAEF4       aQueWriteptrBtl
 0005:021DAF1C       aQueWriteptrBtl_0
 0005:021DAF48       aQueWriteptrBtl_2
 0005:021DAF74       aQueWriteptrBtl_1
 0005:021DAFA0       aBtlClientC
 0005:021DAFB0       aBtlNetC
 0005:021DAFBC       aBtlPokeparamC
 0005:021DAFD0       a0_2
 0005:021DAFD4       aBtlCalcC
 0005:021DAFE0       aBtlvCoreC
 0005:021DAFEC       aBtlvScuC
 0005:021DAFF8       aBtlRecC
 0005:021DB004       aBtlAdapterC
 0005:021DB014       aBtlFieldC
 0005:021DB020       aPokewoodCutinC
 0007:021DDB0C       BtlvStage_Create
 0007:021DE130       BtlvField_Create
 0007:021DE6F4       BtlvCamera_Create
 0007:021DE768       param2
 0007:021DE774       param1
 0007:021DE778       BtlvCamera_Free
 0007:021DE9A8       BtlvCamera_LoadLookAtPos
 0007:021DECA8       BtlvEffect_GetGameOptions
 0007:021DECC8       BtlvEffect_Create
 0007:021DED5C       MainModule_CreateBtlvEffectForTrainerBattle
 0007:021DEE44       BtlvEffectMain_Init
 0007:021DF178       BtlvEffectMain_Free
 0007:021DF254       BtlvEffectMain_Update
 0007:021DF308       BattleViewCmd_AddAnim
 0007:021DF5A0       BtlvEffectMain_PlayMoveAnim
 0007:021DF670       BattleViewCmd_Effect_BallThrow
 0007:021DF808       BattleViewCmd_AddEffectByPos
 0007:021DF828       BattleViewCmd_WaitEffect
 0007:021DFB04       BtlvEffectMain_GaugeDamage
 0007:021DFB3C       BattleViewCmd_Effect_CalcGaugeExp
 0007:021DFB80       BattleViewCmd_ChangeGaugeHPDisplayMode
 0007:021DFB98       BattleViewCmd_Effect_CheckExecuteGauge
 0007:021DFBE8       BattleViewCmd_Effect_SetGaugeStatus
 0007:021DFC1C       BattleViewCmd_Effect_CheckExistGauge
 0007:021DFDC8       jpt_21DFDC6
 0007:021DFE26       def_21DFDC6
 0007:021DFF1C       BattleViewCmd_Effect_DrawEnableTimer
 0007:021DFF3C       BattleViewCmd_IsTimerFinished
 0007:021DFFE2       jpt_21DFFE0
 0007:021E0038       def_21DFFE0
 0007:021E0090       BtlvEffectMain_GetPtr
 0007:021E009C       BtlvEffectMain_GetCameraHandle
 0007:021E00AC       BtlvEffectMain_GetMcss
 0007:021E00CC       BtlvEffectMain_GetGauge
 0007:021E00EC       BtlvEffectMain_GetTCBManager
 0007:021E00F8       BtlvEffectMain_GetPalAnm
 0007:021E0108       BtlvEffectMain_GetClAct
 0007:021E0138       BtlvEffectMain_GetField1C0
 0007:021E016C       BtlvEffectMain_GetMainModule
 0007:021E01A4       StartWinBGM
 0007:021E02D8       BtlvEffectMain_GetBattleMode
 0007:021E0344       BtlvEffectMain_IsNotCompetitiveBattle
 0007:021E03EC       BtlvEffectMain_RemoveTCB
 0007:021E0440       BtlvEffectMain_RemoveAllTCB
 0007:021E0518       BtlvEffectMain_SetShownAbility
 0007:021E052C       BtlvEffectMain_GetShownAbility
 0007:021E0570       BtlvEffectMain_GetEmptyTCBIndex
 0007:021E06FA       jpt_21E06F8
 0007:021E0784       def_21E06F8
 0007:021E0CAE       jpt_21E0CAC
 0007:021E0D84       def_21E0CAC
 0007:021E0E24       BtlvEffVM_Init
 0007:021E0F28       BtlvEffVM_LoadScript
 0007:021E14AC       BtlvEffVM_ClearPokeVoice
 0007:021E14E8       MV00_MoveCamera
 0007:021E156E       def_21E15AC
 0007:021E1570       jpt_21E156E
 0007:021E15AE       jpt_21E15AC
 0007:021E15D0       jpt_21E15CE
 0007:021E1600       def_21E156E
 0007:021E1606       def_21E15CE
 0007:021E16A4       jpt_21E16A2
 0007:021E1704       def_21E16A2
 0007:021E170A       def_21E1714
 0007:021E1716       jpt_21E1714
 0007:021E192C       MV01_ZoomCamera
 0007:021E1A78       MV03_ShakeScreen
 0007:021E1B38       MV05_LoadLookAtPos
 0007:021E1B5C       MV06_LoadSPA
 0007:021E1CB8       MV07_DoSPAAnimation
 0007:021E1E80       a3
 0007:021E1E84       MV09_DoSPAAnimation2
 0007:021E21C0       MV12_DoSPAAnimation3
 0007:021E26DC       MV18_MoveTarget
 0007:021E275C       MV19_MoveUser
 0007:021E2878       MV21_MoveUser2
 0007:021E2B18       MV27_ChangeColor
 0007:021E2B98       MV28_ChangeVisibility
 0007:021E2E34       MV36_LoadBackground
 0007:021E2EF4       MV37_MoveBackground
 0007:021E2F58       MV38_DistortBackground
 0007:021E2FAC       MV39_SetBGPalette
 0007:021E30B4       MV40_SetBGPriority
 0007:021E30D8       MV41_SetBGAlpha
 0007:021E3138       MV42_ChangeBackgroundColor
 0007:021E3188       MV43_ApplyBackground
 0007:021E31AC       MV44_QueueCommands
 0007:021E3258       MV45_PlayBallThrowAnimation
 0007:021E34F4       jpt_21E34F2
 0007:021E3564       def_21E34F2
 0007:021E35C8       MV52_PlaySound
 0007:021E37DC       MV55_StopSound
 0007:021E3874       MV57_Wait
 0007:021E3898       MV58_ToggleFreezeTarget
 0007:021E3938       BtlvEffVM_ConditionalJump
 0007:021E394C       jpt_21E394A
 0007:021E397C       def_21E394A
 0007:021E3A22       jpt_21E3A20
 0007:021E3A90       def_21E3A20
 0007:021E3B24       MV67_PlayPokemonCry
 0007:021E3CB0       MV69_PlayBallShakeAnimation
 0007:021E3E9C       MV72_Jump
 0007:021E3FB0       MV77_End
 0007:021E45B2       jpt_21E45B0
 0007:021E4622       def_21E45B0
 0007:021E46C8       jpt_21E46C6
 0007:021E4740       def_21E46C6
 0007:021E4934       jpt_21E4932
 0007:021E49BA       def_21E4932
 0007:021E4AD0       def_21E4ADA
 0007:021E4ADC       jpt_21E4ADA
 0007:021E4C6A       jpt_21E4C68
 0007:021E4CEA       def_21E4C68
 0007:021E4D3C       BtlvEffVM_GetSPAIndex
 0007:021E4D82       jpt_21E4D80
 0007:021E4E0A       jpt_21E4E08
 0007:021E4E2E       def_21E4E08
 0007:021E4E34       def_21E4D80
 0007:021E4E60       jpt_21E4E5E
 0007:021E4F12       jpt_21E4F10
 0007:021E4F36       def_21E4F10
 0007:021E4F3C       def_21E4E5E
 0007:021E5750       def_21E575A
 0007:021E575C       jpt_21E575A
 0007:021E5A82       jpt_21E5A80
 0007:021E5A8A       def_21E5A80
 0007:021E5D46       jpt_21E5D44
 0007:021E5D78       def_21E5D44
 0007:021E5FAC       BtlvEffVM_GetSPAID
 0007:021E600A       jpt_21E6008
 0007:021E602A       def_21E6008
 0007:021E643E       jpt_21E643C
 0007:021E6478       def_21E643C
 0007:021E67F8       BtlvMcss_Create
 0007:021E6A80       jpt_21E6A7E
 0007:021E6B4C       def_21E6A7E
 0007:021E7146       jpt_21E7144
 0007:021E7192       def_21E7144
 0007:021E71AE       jpt_21E71AC
 0007:021E71E6       def_21E71AC
 0007:021E7B64       BtlvMcss_HasDataFile
 0007:021E803A       jpt_21E8038
 0007:021E808A       def_21E8038
 0007:021E81A4       BtlvMcss_GetPokeball
 0007:021E8378       jpt_21E8376
 0007:021E8398       def_21E8376
 0007:021E85B0       def_21E85BA
 0007:021E85BC       jpt_21E85BA
 0007:021E8CC0       jpt_21E8CBE
 0007:021E8E20       def_21E8CBE
 0007:021E9698       jpt_21E9696
 0007:021E96F2       def_21E9696
 0007:021E9728       jpt_21E9726
 0007:021E97BC       def_21E9726
 0007:021E97D4       BtlvMcss_GetDataIndex
 0007:021E986C       BtlvClAct_Init
 0007:021E98B4       BtlvClAct_Free
 0007:021E98E4       j_ClActSys_Draw
 0007:021E9914       BtlvClAct_PlayMulticellAnimation
 0007:021E9AA8       BtlvClAct_SetupPokestarTurnGraphics
 0007:021E9CD8       BtlvClAct_FreeGraphics
 0007:021E9D0C       BtlvClAct_ClearOAMs
 0007:021E9F5C       jpt_21E9F5A
 0007:021EA044       def_21E9F5A
 0007:021EA14C       jpt_21EA14A
 0007:021EA1A8       def_21EA14A
 0007:021EA34C       BtlvInput_Create
 0007:021EA500       BtlvInput_Free
 0007:021EA534       BtlvInput_Update
 0007:021EA544       BtlvInput_UpdatePokestarTheater
 0007:021EA55C       BtlvInput_Setup
 0007:021EA6F8       BtlvInput_ClearData
 0007:021EA8CC       BtlvInput_CreateBG
 0007:021EA920       map
 0007:021EA924       BtlvInput_FreeBG
 0007:021EA948       BtlvInput_Exit
 0007:021EA9DC       BtlvInput_ActionSelectScreenFlash
 0007:021EAA7C       BtlvInput_SetupBottomScreenMenuGraphics
 0007:021EAAA8       def_21EAAB2
 0007:021EAAB4       jpt_21EAAB2
 0007:021EAFEC       jpt_21EAFEA
 0007:021EB00A       def_21EAFEA
 0007:021EB362       jpt_21EB360
 0007:021EB40E       def_21EB360
 0007:021EB800       BtlvInput_ChangeUIFileIDForBattleMode
 0007:021EB810       BtlvInput_SetupActionSelectScreen
 0007:021EBA1C       BtlvInput_LoadFightScreenBG
 0007:021EBB30       BtlvInput_LoadActionSelectScreen
 0007:021EBB40       def_21EBB4A
 0007:021EBB4C       jpt_21EBB4A
 0007:021EBD08       BtlvInput_LoadActionSelectButtonsForBattleMode
 0007:021EBDFC       BtlvInput_FadeInActionSelectScreen
 0007:021EBE16       jpt_21EBE14
 0007:021EBEE0       def_21EBE14
 0007:021EBF24       BtlvInput_LoadTargetSelectOutline
 0007:021EBFD8       BtlvInput_LoadActionSelectBG
 0007:021EC0A4       BtlvInput_EnableBG
 0007:021EC110       BtlvInput_LoadFightScreenOpenAnim
 0007:021EC120       def_21EC12A
 0007:021EC12C       jpt_21EC12A
 0007:021EC248       BtlvInput_ResetActionSelectBG
 0007:021EC338       BtlvInput_LoadActionSelectScreenForBattleMode
 0007:021EC348       def_21EC352
 0007:021EC354       jpt_21EC352
 0007:021EC510       BtlvInput_LoadVsRecorderButtons
 0007:021EC670       BtlvInput_LoadPokestarTheaterPersonGraphics
 0007:021EC894       Btlvinput_LoadPokestarMovieTheaterBG
 0007:021EC9D8       BtlvInput_LoadPokestarTheaterPalettes
 0007:021ECA84       BtlvInput_CopyPokestarTheaterPalettes
 0007:021ECBC4       BtlvInput_GetRand
 0007:021ECBD0       BtlvInput_LoadTextChoiceBoxes
 0007:021ECCD4       BtlvInput_LoadActionSelectButtonsForRotationBattle
 0007:021ECE0C       BtlvInput_SetupMoveSelectTask
 0007:021ECEE8       BtlvInput_ScaleBG
 0007:021ECF60       BtlvInput_BGTransformTask
 0007:021ECFE8       BtlvInput_SetBGPos
 0007:021ED064       BtlvInput_BGTranslateTask
 0007:021ED0D0       BtlvInput_MoveBG
 0007:021ED148       BtlvInput_BGMoveTask
 0007:021ED48C       BtlvInput_SetupBG
 0007:021ED4F4       BtlvInput_SetupBGTask
 0007:021ED568       BtlvInput_ExitBtlvInputTask
 0007:021ED85C       BtlvInput_LoadMoveSelectGraphics
 0007:021EDC98       BtlvInput_GetMoveTargetOutlineNSCRFileID
 0007:021EDF04       BtlvInput_LoadYesNoBoxes
 0007:021EDFA8       BtlvInput_SetupMoveSelect
 0007:021EE158       BtlvInput_DrawVsRecorderTurnText
 0007:021EE280       BtlvInput_ClearBottomScreen
 0007:021EE334       GetColorForPPLeft
 0007:021EE398       BtlvInput_SetupIconsForFightScreenMons
 0007:021EE748       BtlvInput_SetupBattleWeatherIcon
 0007:021EEB3C       BtlvInput_DrawTextForMoveButton
 0007:021EEF60       jpt_21EEF5E
 0007:021EF014       def_21EEF5E
 0007:021EF0C2       jpt_21EF0C0
 0007:021EF0EA       def_21EF0C0
 0007:021EF12C       BtlvInput_BackFadeReq
 0007:021EF1F0       BtlvInput_BackFadeTask
 0007:021EF2DC       BtlvInput_DrawNumber
 0007:021EF400       BtlvInput_AddTCB
 0007:021EF418       BtlvInput_GetTCBIndex
 0007:021EF430       BtlvInput_ExecuteTCBTask
 0007:021EF478       BtlvInput_GetEmptyTCBIndex
 0007:021EF49C       BtlvInput_ExecuteAllTCBs
 0007:021EF51A       jpt_21EF518
 0007:021EF5B8       def_21EF518
 0007:021EF630       BtlvInput_GetFightScreenButtonNSCRFileID
 0007:021EF72C       BtlvInput_SEPlay_Open
 0007:021EF744       BtlvInput_SEPlay_Select
 0007:021EF75C       BtlvInput_SEPlay_Decide
 0007:021EF774       BtlvInput_SEPlay_Cancel
 0007:021EF78C       BtlvInput_SEPlay_Rotation
 0007:021EF7A4       BtlvInput_SEPlay_Decide2
 0007:021EF7BC       BtlvInput_SEPlay_Beep
 0007:021EF7D4       BtlvGauge_Create
 0007:021EF880       BtlvGauge_Free
 0007:021EFAE0       BtlvGauge_SetDataBattle
 0007:021EFCB0       BtlvGauge_SetDataParty
 0007:021EFE5C       GetUIHighlightedElementPalette
 0007:021EFFD4       jpt_21EFFD2
 0007:021EFFE8       def_21EFFD2
 0007:021F0054       BtlvGauge_ClearClActData
 0007:021F00C4       GetUIBackgroundElementPalette
 0007:021F00F2       jpt_21F00F0
 0007:021F00FC       def_21F00F0
 0007:021F05A0       BtlvGauge_Update
 0007:021F0684       BtlvGaugeData_SetHPBarPixelLength
 0007:021F091C       BtlvGauge_LoadMonData
 0007:021F0E78       UpdateHPExpBar
 0007:021F0F38       BtlvGauge_DrawNameText
 0007:021F1668       BtlvGauge_SetStatus
 0007:021F1B18       def_21F1B22
 0007:021F1B24       jpt_21F1B22
 0007:021F1C3C       CalcHPBarPixelLength
 0007:021F21B4       BtlvTimer_Create
 0007:021F249C       BtlvTimer_IsTimerFinished
 0007:021F26F8       BtlvBG_12_Create
 0007:021F2720       BtlvBG_8_Create
 0007:021F2998       jpt_21F2996
 0007:021F2A80       def_21F2996
 0007:021F2B50       jpt_21F2B4E
 0007:021F2C10       def_21F2B4E
 0007:021F2D1C       BtlvFingerCursor_Create
 0007:021F2DDC       BtlvFingerCursor_Free
 0007:021F2E0C       BtlvFingerCursor_Draw
 0007:021F2EC4       BtlvFingerCursor_ClearOAM
 0007:021F2EF4       jpt_21F2EF2
 0007:021F2F66       def_21F2EF2
 0007:021F2FB4       target
 0007:021F2FC0       position
 0007:021F2FCC       upVector
 0007:021F304C       MoveEffScrVMSetup
 0007:021F3050       vm
 0007:021F30F4       MOVE_SCRCMD
 0007:021F3688       config
 0007:021F3C58       MOVE_TARGET_OUTLINE_NSCR_IDS
 0007:021F3F60       aBtlvStageC
 0007:021F3F70       aBtlvFieldC
 0007:021F3F80       aBtlvCameraC
 0007:021F3FDC       aBtlvEffectC
 0007:021F41B4       aBtlvEffvmC
 0007:021F41C4       a08
 0007:021F41C8       aBtlvMcssC
 0007:021F41D4       aBtlvClactC
 0007:021F4208       aBtlvInputC
 0007:021F4218       aBtlvGaugeC
 0007:021F4228       aBtlvBGaugeC
 0007:021F4238       aBtlvTimerC
 0007:021F4248       aBtlvBgC
 0007:021F4254       aBtlvFingerCurs
 0004:021F42C4       j_GFL_HeapFree
 0004:021F4460       aBAppToolC
 0006:021F4820       jpt_21F481E
 0006:021F48E2       def_21F481E
 0006:021F494A       jpt_21F4948
 0006:021F4A20       def_21F4948
 0006:021F4BBE       jpt_21F4BBC
 0006:021F4EF0       def_21F4BBC
 0006:021F4FF2       jpt_21F4FF0
 0006:021F5032       def_21F4FF0
 0006:021F51A0       jpt_21F519E
 0006:021F5216       def_21F519E
 0006:021F5696       jpt_21F5694
 0006:021F56AA       def_21F5694
 0006:021F7590       tmMove
 0006:021F7E04       jpt_21F7E02
 0006:021F7E54       def_21F7E02
 0006:021F8754       PokeList_Init
 0006:021F8C2C       jpt_21F8C2A
 0006:021F8C34       def_21F8C2A
 0006:021F8C56       jpt_21F8C54
 0006:021F8D4A       def_21F8C54
 0006:021F8D98       jpt_21F8D96
 0006:021F8DA0       def_21F8D96
 0006:021F8DC2       jpt_21F8DC0
 0006:021F8E98       def_21F8DC0
 0006:021F8EEC       jpt_21F8EEA
 0006:021F8F1A       def_21F8EEA
 0006:021F9080       jpt_21F907E
 0006:021F908A       def_21F907E
 0006:021F90B0       jpt_21F90AE
 0006:021F912C       def_21F90AE
 0006:021F9188       jpt_21F9186
 0006:021F9192       def_21F9186
 0006:021F91B8       jpt_21F91B6
 0006:021F9228       def_21F91B6
 0006:021F9282       jpt_21F9280
 0006:021F9322       def_21F9280
 0006:021F936E       jpt_21F936C
 0006:021F93F2       def_21F936C
 0006:021F945C       jpt_21F945A
 0006:021F9466       def_21F945A
 0006:021F948C       jpt_21F948A
 0006:021F9510       def_21F948A
 0006:021F9B20       PokeList_LoadPokeData
 0006:021F9DF8       jpt_21F9DF6
 0006:021F9E6A       def_21F9DF6
 0006:021FA120       PokeList_DetermineSwitchInFailCause
 0006:021FA198       PokeList_LoadSwitchInFailMessage
 0006:021FA1C4       jpt_21FA1C2
 0006:021FA22C       def_21FA1C2
 0006:021FA24C       PokeList_IsEgg
 0006:021FA274       PokeList_IsBagDisabled
 0006:021FA2C4       PokeList_IsAlreadyInBattle
 0006:021FA310       PokeList_IsAlreadySelectedForSwitchIn
 0006:021FA354       jpt_21FA352
 0006:021FA398       def_21FA352
 0006:021FA44C       PokeList_GetSelectedMonID
 0006:021FA508       PokeList_ChooseStrIDForSwitchOutFail
 0006:021FA7B4       jpt_21FA7B2
 0006:021FAB7C       def_21FA7B2
 0006:021FB8A0       aBPlistAnmC
 0006:021FB8B0       aBPlistMainC
 0003:02FE0020       IRQ_FUNCTIONS
 0003:02FE3FF8       g_IRQWaitBits
 0003:02FE3FFC       g_IrqHandler
 0001:02FFFC40       g_BootIndicator
 0001:02FFFD9C       g_ExceptionHandler
 0001:02FFFDA0       os_MemRegionStarts
 0001:02FFFDC4       os_MemRegionEnds
 0001:02FFFE00       g_ROMHeader
 0001:02FFFFB0       g_AvailCartMutexBitsLow
 0001:02FFFFB4       g_AvailCartMutexBitsHigh
 0001:04000000       DISPCNT_A
 0001:04000004       DISPSTAT
 0001:04000006       VCOUNT
 0001:04000008       LCDIO_A
 0001:04000060       DISP3DCNT
 0001:04000064       DISPCAPCNT
 0001:0400006C       MASTER_BRIGHT_A
 0001:040000B0       DMA_CHANNELS
 0001:040000E0       DMAFILL
 0001:04000100       TM0CNT_L
 0001:04000102       TM0CNT_H
 0001:04000130       KEYINPUT
 0001:04000180       IPCSYNC
 0001:04000184       IPCFIFOCNT
 0001:04000188       IPCFIFOSEND
 0001:040001A1       AUXSPICNT
 0001:040001A4       ROMCTRL
 0001:040001A8       GAMECARD_8BYTE_OUT
 0001:04000204       EXMEMCNT
 0001:04000208       IME
 0001:04000210       IE
 0001:04000214       IF
 0001:04000240       VRAMCNT_A
 0001:04000241       VRAMCNT_B
 0001:04000242       VRAMCNT_C
 0001:04000243       VRAMCNT_D
 0001:04000244       VRAMCNT_E
 0001:04000245       VRAMCNT_F
 0001:04000246       VRAMCNT_G
 0001:04000247       WRAMCNT
 0001:04000248       VRAMCNT_H
 0001:04000249       VRAMCNT_I
 0001:04000280       DIVCNT
 0001:04000290       DIV_NUMER
 0001:04000298       DIV_DENOM
 0001:040002A0       DIV_RESULT
 0001:040002A8       DIVREM_RESULT
 0001:040002B0       SQRTCNT
 0001:040002B4       SQRT_RESULT
 0001:040002B8       SQRT_PARAM
 0001:04000304       POWCNT1
 0001:04000320       RDLINES_COUNT
 0001:04000330       EDGE_COLOR
 0001:04000340       ALPHA_TEST_REF
 0001:04000350       CLEAR_COLOR
 0001:04000354       CLEAR_DEPTH
 0001:04000356       CLRIMAGE_OFFSET
 0001:04000358       FOG_COLOR
 0001:0400035C       FOG_OFFSET
 0001:04000360       FOG_TABLE
 0001:04000380       TOON_TABLE
 0001:04000400       GXFIFO
 0001:04000440       MTX_MODE
 0001:04000444       MTX_PUSH
 0001:04000448       MTX_POP
 0001:0400044C       MTX_STORE
 0001:04000450       MTX_RESTORE
 0001:04000454       MTX_IDENTITY
 0001:04000458       MTX_LOAD_4X4
 0001:0400045C       MTX_LOAD_4X3
 0001:04000460       MTX_MULT_4X4
 0001:04000464       MTX_MULT_4X3
 0001:04000468       MTX_MULT_3x3
 0001:0400046C       MTX_SCALE
 0001:04000470       MTX_TRANS
 0001:04000480       COLOR
 0001:04000484       NORMAL
 0001:04000488       TEXCOORD
 0001:0400048C       VTX_16
 0001:04000490       VTX_10
 0001:04000494       VTX_XY
 0001:04000498       VTX_XZ
 0001:0400049C       VTX_YZ
 0001:040004A0       VTX_DIFF
 0001:040004A4       POLYGON_ATTR
 0001:040004A8       TEXIMAGE_PARAM
 0001:040004AC       PALETTE_BASE
 0001:040004C0       DIF_AMB
 0001:040004C4       SPE_EMI
 0001:040004C8       LIGHT_VECTOR
 0001:040004CC       LIGHT_COLOR
 0001:040004D0       SHININESS
 0001:04000500       BEGIN_VTXS
 0001:04000504       END_VTXS
 0001:04000540       SWAP_BUFFERS
 0001:04000580       VIEWPORT
 0001:040005C0       BOX_TEST
 0001:040005C4       POS_TEST
 0001:040005C8       VEC_TEST
 0001:04000600       GXSTAT
 0001:04000604       POLY_RAM_COUNT
 0001:04000610       DISP_1DOT_DEPTH
 0001:04000620       POS_RESULT
 0001:04000630       VEC_RESULT
 0001:04000640       CLIPMTX_RESULT
 0001:04000680       VECMTX_RESULT
 0001:04001000       DISPCNT_B
 0001:04001008       LCDIO_B
 0001:0400106C       MASTER_BRIGHT_B
 0001:05000000       STD_PALETTE_BG_A
 0001:05000200       STD_PALETTE_OBJ_A
 0001:05000400       STD_PALETTE_BG_B
 0001:05000600       STD_PALETTE_OBJ_B
 0001:06800000       VRAM_A
 0001:06820000       VRAM_B
 0001:06840000       VRAM_C
 0001:06860000       VRAM_D
 0001:06880000       VRAM_E
 0001:06890000       VRAM_F
 0001:06894000       VRAM_G
 0001:06898000       VRAM_H
 000A:06898020       FieldEffectEvent_AddItem
 000A:06898070       j_j_BattleEvent_AddItem
 000A:06898074       j_BattleEvent_AddItem
 000A:06898080       j_BattleEventItem_Remove_0
 000A:06898088       EventAddFieldWeather
 000A:06898094       HandlerFieldWeather
 000A:06898098       EventAddFieldTrickRoom
 000A:068980A4       HandlerFieldTrickRoom
 000A:068980B0       EventAddFieldGravity
 000A:068980BC       HandlerFieldGravityAccuracy
 000A:068980CC       HandlerFieldGravityGrounded
 000A:068980E4       j_j_BattleEventVar_GetValue
 000A:068980E8       j_BattleEventVar_GetValue
 000A:068980F4       j_j_BattleEventVar_RewriteValue
 000A:068980F8       j_BattleEventVar_RewriteValue
 000A:06898104       EventAddFieldWaterSport
 000A:06898110       HandlerFieldWaterSport
 000A:0689812C       j_j_BattleEventVar_GetValue_0
 000A:06898130       j_BattleEventVar_GetValue_0
 000A:0689813C       j_j_BattleEventVar_MulValue
 000A:06898140       j_BattleEventVar_MulValue
 000A:0689814C       EventAddFieldMudSport
 000A:06898158       HandlerFieldMudSport
 000A:06898174       j_j_BattleEventVar_GetValue_1
 000A:06898178       j_BattleEventVar_GetValue_1
 000A:06898184       j_j_BattleEventVar_MulValue_0
 000A:06898188       j_BattleEventVar_MulValue_0
 000A:06898194       EventAddFieldWonderRoom
 000A:068981A0       HandlerFieldWonderRoom
 000A:068981B4       j_j_BattleEventVar_GetValue_2
 000A:068981B8       j_BattleEventVar_GetValue_2
 000A:068981C4       j_j_BattleEventVar_RewriteValue_0
 000A:068981C8       j_BattleEventVar_RewriteValue_0
 000A:068981D4       EventAddFieldImprison
 000A:068981E0       EventAddFieldMagicRoom
 000A:068981EC       HandlerFieldMagicRoom
 000A:068981F0       PosEffectEvent_AddItem
 000A:0689827C       j_j_BattleEvent_AddItem_0
 000A:06898280       j_BattleEvent_AddItem_0
 000A:0689828C       j_j_BattleEventItem_SetWorkValue
 000A:06898290       j_BattleEventItem_SetWorkValue
 000A:0689829C       j_j_BattleEventItem_SetWorkValue_0
 000A:068982A0       j_BattleEventItem_SetWorkValue_0
 000A:068982AC       PosEffectEvent_IsRegistered
 000A:068982C0       PosEffectEvent_CanEffectBeRegistered
 000A:068982EC       j_j_BattleEvent_SeekItem
 000A:068982F0       j_BattleEvent_SeekItem
 000A:068982FC       j_j_BattleEventItem_GetSubID
 000A:06898300       j_BattleEventItem_GetSubID
 000A:0689830C       j_j_BattleEvent_GetNextItem
 000A:06898310       j_BattleEvent_GetNextItem
 000A:0689831C       EventAddPosWish
 000A:06898328       HandlerPosWish
 000A:068983DC       j_j_BattleEventVar_GetValue_3
 000A:068983E0       j_BattleEventVar_GetValue_3
 000A:068983EC       j_j_Handler_CheckMatchup
 000A:068983F0       j_Handler_CheckMatchup
 000A:068983FC       j_j_Handler_GetTurnCounter
 000A:06898400       j_Handler_GetTurnCounter
 000A:0689840C       j_j_Handler_GetTurnCounter_0
 000A:06898410       j_Handler_GetTurnCounter_0
 000A:0689841C       j_j_Handler_PokePosToPokeID
 000A:06898420       j_Handler_PokePosToPokeID
 000A:0689842C       j_j_Handler_GetPokeParam
 000A:06898430       j_Handler_GetPokeParam
 000A:0689843C       j_j_IsMonFullHP
 000A:06898440       j_IsMonFullHP
 000A:0689844C       j_j_Handler_GetPokeParam_0
 000A:06898450       j_Handler_GetPokeParam_0
 000A:0689845C       j_j_BattleHandler_PushWork
 000A:06898460       j_BattleHandler_PushWork
 000A:0689846C       j_j_DivideMaxHPZeroCheck
 000A:06898470       j_DivideMaxHPZeroCheck
 000A:0689847C       j_j_BattleHandler_StrSetup_0
 000A:06898480       j_BattleHandler_StrSetup_0
 000A:0689848C       j_j_BattleHandler_AddArg_1
 000A:06898490       j_BattleHandler_AddArg_1
 000A:0689849C       j_j_BattleHandler_PopWork
 000A:068984A0       j_BattleHandler_PopWork
 000A:068984AC       j_j_BattleEventItem_Remove_1
 000A:068984B0       j_BattleEventItem_Remove_1
 000A:068984BC       EventAddPosLunarDance
 000A:068984C8       HandlerPosLunarDance
 000A:06898628       j_j_BattleEventVar_GetValue_4
 000A:0689862C       j_BattleEventVar_GetValue_4
 000A:06898638       j_j_Handler_PokeIDToPokePos
 000A:0689863C       j_Handler_PokeIDToPokePos
 000A:06898648       j_j_Handler_GetPokeParam_1
 000A:0689864C       j_Handler_GetPokeParam_1
 000A:06898658       j_j_IsMonFullHP_0
 000A:0689865C       j_IsMonFullHP_0
 000A:06898668       j_j_GetBattleMonStatus
 000A:0689866C       j_GetBattleMonStatus
 000A:06898678       j_j_GetBattleMonMoveCount
 000A:0689867C       j_GetBattleMonMoveCount
 000A:06898688       j_j_Move_GetMissingPP
 000A:0689868C       j_Move_GetMissingPP
 000A:06898698       j_j_BattleHandler_PushWork_0
 000A:0689869C       j_BattleHandler_PushWork_0
 000A:068986A8       j_j_BattleHandler_StrSetup_1
 000A:068986AC       j_BattleHandler_StrSetup_1
 000A:068986B8       j_j_BattleHandler_AddArg_2
 000A:068986BC       j_BattleHandler_AddArg_2
 000A:068986C8       j_j_BattleHandler_PopWork_0
 000A:068986CC       j_BattleHandler_PopWork_0
 000A:068986D8       j_j_IsMonFullHP_1
 000A:068986DC       j_IsMonFullHP_1
 000A:068986E8       j_j_BattleHandler_PushWork_1
 000A:068986EC       j_BattleHandler_PushWork_1
 000A:068986F8       j_j_GetBattleMonStat
 000A:068986FC       j_GetBattleMonStat
 000A:06898708       j_j_GetBattleMonStat_0
 000A:0689870C       j_GetBattleMonStat_0
 000A:06898718       j_j_BattleHandler_PopWork_1
 000A:0689871C       j_BattleHandler_PopWork_1
 000A:06898728       j_j_GetBattleMonStatus_0
 000A:0689872C       j_GetBattleMonStatus_0
 000A:06898738       j_j_BattleHandler_PushWork_2
 000A:0689873C       j_BattleHandler_PushWork_2
 000A:06898748       j_j_BattleHandler_PopWork_2
 000A:0689874C       j_BattleHandler_PopWork_2
 000A:06898758       j_j_GetBattleMonMoveCount_0
 000A:0689875C       j_GetBattleMonMoveCount_0
 000A:06898768       j_j_Move_GetMissingPP_0
 000A:0689876C       j_Move_GetMissingPP_0
 000A:06898778       j_j_BattleHandler_PushWork_3
 000A:0689877C       j_BattleHandler_PushWork_3
 000A:06898788       j_j_BattleHandler_PopWork_3
 000A:0689878C       j_BattleHandler_PopWork_3
 000A:06898798       j_j_BattleEventItem_Remove_2
 000A:0689879C       j_BattleEventItem_Remove_2
 000A:068987A8       EventAddPosHealingWish
 000A:068987B4       HandlerPosHealingWish
 000A:068988A0       j_j_BattleEventVar_GetValue_5
 000A:068988A4       j_BattleEventVar_GetValue_5
 000A:068988B0       j_j_Handler_PokeIDToPokePos_0
 000A:068988B4       j_Handler_PokeIDToPokePos_0
 000A:068988C0       j_j_Handler_GetPokeParam_2
 000A:068988C4       j_Handler_GetPokeParam_2
 000A:068988D0       j_j_IsMonFullHP_2
 000A:068988D4       j_IsMonFullHP_2
 000A:068988E0       j_j_GetBattleMonStatus_1
 000A:068988E4       j_GetBattleMonStatus_1
 000A:068988F0       j_j_BattleHandler_PushWork_4
 000A:068988F4       j_BattleHandler_PushWork_4
 000A:06898900       j_j_BattleHandler_StrSetup_2
 000A:06898904       j_BattleHandler_StrSetup_2
 000A:06898910       j_j_BattleHandler_AddArg_3
 000A:06898914       j_BattleHandler_AddArg_3
 000A:06898920       j_j_BattleHandler_PopWork_4
 000A:06898924       j_BattleHandler_PopWork_4
 000A:06898930       j_j_IsMonFullHP_3
 000A:06898934       j_IsMonFullHP_3
 000A:06898940       j_j_BattleHandler_PushWork_5
 000A:06898944       j_BattleHandler_PushWork_5
 000A:06898950       j_j_GetBattleMonStat_1
 000A:06898954       j_GetBattleMonStat_1
 000A:06898960       j_j_GetBattleMonStat_2
 000A:06898964       j_GetBattleMonStat_2
 000A:06898970       j_j_BattleHandler_PopWork_5
 000A:06898974       j_BattleHandler_PopWork_5
 000A:06898980       j_j_GetBattleMonStatus_2
 000A:06898984       j_GetBattleMonStatus_2
 000A:06898990       j_j_BattleHandler_PushWork_6
 000A:06898994       j_BattleHandler_PushWork_6
 000A:068989A0       j_j_BattleHandler_PopWork_6
 000A:068989A4       j_BattleHandler_PopWork_6
 000A:068989B0       j_j_BattleEventItem_Remove_3
 000A:068989B4       j_BattleEventItem_Remove_3
 000A:068989C0       EventAddPosFutureSight
 000A:068989CC       HandlerPosFutureSight
 000A:06898A80       j_j_BattleEventVar_GetValue_6
 000A:06898A84       j_BattleEventVar_GetValue_6
 000A:06898A90       j_j_Handler_CheckMatchup_0
 000A:06898A94       j_Handler_CheckMatchup_0
 000A:06898AA0       j_j_Handler_GetTurnCounter_1
 000A:06898AA4       j_Handler_GetTurnCounter_1
 000A:06898AB0       j_j_Handler_PokePosToPokeID_0
 000A:06898AB4       j_Handler_PokePosToPokeID_0
 000A:06898AC0       j_j_Handler_GetPokeParam_3
 000A:06898AC4       j_Handler_GetPokeParam_3
 000A:06898AD0       j_j_BattleMon_IsFainted
 000A:06898AD4       j_BattleMon_IsFainted
 000A:06898AE0       j_j_BattleHandler_PushWork_7
 000A:06898AE4       j_BattleHandler_PushWork_7
 000A:06898AF0       j_j_BattleHandler_StrSetup_3
 000A:06898AF4       j_BattleHandler_StrSetup_3
 000A:06898B00       j_j_BattleHandler_AddArg_4
 000A:06898B04       j_BattleHandler_AddArg_4
 000A:06898B10       j_j_BattleHandler_AddArg_5
 000A:06898B14       j_BattleHandler_AddArg_5
 000A:06898B20       j_j_BattleHandler_PopWork_7
 000A:06898B24       j_BattleHandler_PopWork_7
 000A:06898B30       j_j_BattleHandler_PushWork_8
 000A:06898B34       j_BattleHandler_PushWork_8
 000A:06898B40       j_j_BattleHandler_PopWork_8
 000A:06898B44       j_BattleHandler_PopWork_8
 000A:06898B50       j_j_BattleEventItem_Remove_4
 000A:06898B54       j_BattleEventItem_Remove_4
 000A:06898B60       EventAddPosBatonPass
 000A:06898B6C       HandlerPosBatonPass
 000A:06898BAC       j_j_BattleEventVar_GetValue_7
 000A:06898BB0       j_BattleEventVar_GetValue_7
 000A:06898BBC       j_j_Handler_PokePosToPokeID_1
 000A:06898BC0       j_Handler_PokePosToPokeID_1
 000A:06898BCC       j_j_BattleHandler_PushWork_9
 000A:06898BD0       j_BattleHandler_PushWork_9
 000A:06898BDC       j_j_BattleHandler_PopWork_9
 000A:06898BE0       j_BattleHandler_PopWork_9
 000A:06898BEC       j_j_BattleEventItem_Remove_5
 000A:06898BF0       j_BattleEventItem_Remove_5
 000A:06898BFC       BattleSideStatus_Init
 000A:06898C10       SideEffectEvent_AddItem
 000A:06898CC0       j_j_BattleEvent_AddItem_1
 000A:06898CC4       j_BattleEvent_AddItem_1
 000A:06898CD0       j_j_BattleEventItem_SetWorkValue_1
 000A:06898CD4       j_BattleEventItem_SetWorkValue_1
 000A:06898CE0       BattleSideStatus_GetCount
 000A:06898CF4       BattleSideStatus_IsEffectActive
 000A:06898D10       SideEffectEvent_RemoveItem
 000A:06898D44       j_j_BattleEventItem_Remove_6
 000A:06898D48       j_BattleEventItem_Remove_6
 000A:06898D54       BattleSideStatus_TurnCheck
 000A:06898DD0       j_j_BattleEventItem_Remove_7
 000A:06898DD4       j_BattleEventItem_Remove_7
 000A:06898DE0       BattleSideStatus_GetCountFromBattleEventItem
 000A:06898E0C       j_j_BattleEventItem_GetSubID_0
 000A:06898E10       j_BattleEventItem_GetSubID_0
 000A:06898E1C       EventAddSideReflect
 000A:06898E28       HandlerSideReflect
 000A:06898E38       EventAddSideLightScreen
 000A:06898E44       HandlerSideLightScreen
 000A:06898E54       CommonScreenEffect
 000A:06898EA4       j_j_BattleEventVar_GetValue_8
 000A:06898EA8       j_BattleEventVar_GetValue_8
 000A:06898EB4       j_j_GetSideFromMonID
 000A:06898EB8       j_GetSideFromMonID
 000A:06898EC4       j_j_BattleEventVar_GetValue_9
 000A:06898EC8       j_BattleEventVar_GetValue_9
 000A:06898ED4       j_j_BattleEventVar_GetValue_10
 000A:06898ED8       j_BattleEventVar_GetValue_10
 000A:06898EE4       j_j_Handler_GetBattleStyle
 000A:06898EE8       j_Handler_GetBattleStyle
 000A:06898EF4       j_j_BattleEventVar_MulValue_1
 000A:06898EF8       j_BattleEventVar_MulValue_1
 000A:06898F04       EventAddSideSafeguard
 000A:06898F10       HandlerSideSafeguardCheckFail
 000A:06898F58       j_j_BattleEventVar_GetValue_11
 000A:06898F5C       j_BattleEventVar_GetValue_11
 000A:06898F68       j_j_GetSideFromMonID_0
 000A:06898F6C       j_GetSideFromMonID_0
 000A:06898F78       j_j_BattleEventVar_GetValue_12
 000A:06898F7C       j_BattleEventVar_GetValue_12
 000A:06898F88       j_j_BattleEventVar_GetValue_13
 000A:06898F8C       j_BattleEventVar_GetValue_13
 000A:06898F98       j_j_IsBasicStatus
 000A:06898F9C       j_IsBasicStatus
 000A:06898FA8       j_j_BattleEventVar_RewriteValue_1
 000A:06898FAC       j_BattleEventVar_RewriteValue_1
 000A:06898FB8       HandlerSideSafeguardFailMessage
 000A:06899000       j_j_BattleEventVar_GetValue_14
 000A:06899004       j_BattleEventVar_GetValue_14
 000A:06899010       j_j_BattleHandler_PushWork_10
 000A:06899014       j_BattleHandler_PushWork_10
 000A:06899020       j_j_BattleHandler_StrSetup_4
 000A:06899024       j_BattleHandler_StrSetup_4
 000A:06899030       j_j_BattleHandler_AddArg_6
 000A:06899034       j_BattleHandler_AddArg_6
 000A:06899040       j_j_BattleHandler_PopWork_10
 000A:06899044       j_BattleHandler_PopWork_10
 000A:06899050       EventAddSideMist
 000A:0689905C       HandlerSideMistCheckFail
 000A:06899098       j_j_BattleEventVar_GetValue_15
 000A:0689909C       j_BattleEventVar_GetValue_15
 000A:068990A8       j_j_GetSideFromMonID_1
 000A:068990AC       j_GetSideFromMonID_1
 000A:068990B8       j_j_BattleEventVar_GetValue_16
 000A:068990BC       j_BattleEventVar_GetValue_16
 000A:068990C8       j_j_BattleEventVar_GetValue_17
 000A:068990CC       j_BattleEventVar_GetValue_17
 000A:068990D8       j_j_BattleEventVar_RewriteValue_2
 000A:068990DC       j_BattleEventVar_RewriteValue_2
 000A:068990E8       HandlerSideMistFailMessage
 000A:06899144       j_j_BattleEventVar_GetValue_18
 000A:06899148       j_BattleEventVar_GetValue_18
 000A:06899154       j_j_BattleEventVar_GetValue_19
 000A:06899158       j_BattleEventVar_GetValue_19
 000A:06899164       j_j_BattleHandler_PushWork_11
 000A:06899168       j_BattleHandler_PushWork_11
 000A:06899174       j_j_BattleHandler_StrSetup_5
 000A:06899178       j_BattleHandler_StrSetup_5
 000A:06899184       j_j_BattleHandler_AddArg_7
 000A:06899188       j_BattleHandler_AddArg_7
 000A:06899194       j_j_BattleHandler_PopWork_11
 000A:06899198       j_BattleHandler_PopWork_11
 000A:068991A4       EventAddSideTailwind
 000A:068991B0       HandlerSideTailwind
 000A:068991D4       j_j_BattleEventVar_GetValue_20
 000A:068991D8       j_BattleEventVar_GetValue_20
 000A:068991E4       j_j_GetSideFromMonID_2
 000A:068991E8       j_GetSideFromMonID_2
 000A:068991F4       j_j_BattleEventVar_MulValue_2
 000A:068991F8       j_BattleEventVar_MulValue_2
 000A:06899204       EventAddSideLuckyChant
 000A:06899210       HandlerSideLuckyChant
 000A:06899230       j_j_BattleEventVar_GetValue_21
 000A:06899234       j_BattleEventVar_GetValue_21
 000A:06899240       j_j_GetSideFromMonID_3
 000A:06899244       j_GetSideFromMonID_3
 000A:06899250       j_j_BattleEventVar_RewriteValue_3
 000A:06899254       j_BattleEventVar_RewriteValue_3
 000A:06899260       EventAddSideStealthRock
 000A:0689926C       HandlerSideStealthRock
 000A:068992AE       jpt_68992AC
 000A:06899304       j_j_BattleEventVar_GetValue_22
 000A:06899308       j_BattleEventVar_GetValue_22
 000A:06899314       j_j_GetSideFromMonID_4
 000A:06899318       j_GetSideFromMonID_4
 000A:06899324       j_j_Handler_GetPokeParam_4
 000A:06899328       j_Handler_GetPokeParam_4
 000A:06899334       j_j_GetPokeType
 000A:06899338       j_GetPokeType
 000A:06899344       j_j_GetTypeEffectivenessVsMon
 000A:06899348       j_GetTypeEffectivenessVsMon
 000A:06899354       j_j_BattleHandler_PushWork_12
 000A:06899358       j_BattleHandler_PushWork_12
 000A:06899364       j_j_DivideMaxHPZeroCheck_0
 000A:06899368       j_DivideMaxHPZeroCheck_0
 000A:06899374       j_j_BattleHandler_StrSetup_6
 000A:06899378       j_BattleHandler_StrSetup_6
 000A:06899384       j_j_BattleHandler_AddArg_8
 000A:06899388       j_BattleHandler_AddArg_8
 000A:06899394       j_j_BattleHandler_PopWork_12
 000A:06899398       j_BattleHandler_PopWork_12
 000A:068993A4       EventAddSideWideGuard
 000A:068993B0       HandlerSideWideGuard
 000A:06899418       j_j_BattleEventVar_GetValue_23
 000A:0689941C       j_BattleEventVar_GetValue_23
 000A:06899428       j_j_GetSideFromMonID_5
 000A:0689942C       j_GetSideFromMonID_5
 000A:06899438       j_j_BattleEventVar_GetValue_24
 000A:0689943C       j_BattleEventVar_GetValue_24
 000A:06899448       j_j_PML_MoveGetParam
 000A:0689944C       j_PML_MoveGetParam
 000A:06899458       j_j_PML_MoveIsDamaging
 000A:0689945C       j_PML_MoveIsDamaging
 000A:06899468       j_j_BattleEventVar_RewriteValue_4
 000A:0689946C       j_BattleEventVar_RewriteValue_4
 000A:06899478       j_j_BattleEventVar_GetValue_25
 000A:0689947C       j_BattleEventVar_GetValue_25
 000A:06899488       j_j_BattleHandler_StrSetup_7
 000A:0689948C       j_BattleHandler_StrSetup_7
 000A:06899498       j_j_BattleHandler_AddArg_9
 000A:0689949C       j_BattleHandler_AddArg_9
 000A:068994A8       EventAddSideQuickGuard
 000A:068994B4       HandlerSideQuickGuard
 000A:06899514       j_j_BattleEventVar_GetValue_26
 000A:06899518       j_BattleEventVar_GetValue_26
 000A:06899524       j_j_GetSideFromMonID_6
 000A:06899528       j_GetSideFromMonID_6
 000A:06899534       j_j_BattleEventVar_GetValue_27
 000A:06899538       j_BattleEventVar_GetValue_27
 000A:06899544       j_j_BattleEventVar_GetValue_28
 000A:06899548       j_BattleEventVar_GetValue_28
 000A:06899554       j_j_PML_MoveGetParam_0
 000A:06899558       j_PML_MoveGetParam_0
 000A:06899564       j_j_BattleEventVar_RewriteValue_5
 000A:06899568       j_BattleEventVar_RewriteValue_5
 000A:06899574       j_j_BattleEventVar_GetValue_29
 000A:06899578       j_BattleEventVar_GetValue_29
 000A:06899584       j_j_BattleHandler_StrSetup_8
 000A:06899588       j_BattleHandler_StrSetup_8
 000A:06899594       j_j_BattleHandler_AddArg_10
 000A:06899598       j_BattleHandler_AddArg_10
 000A:068995A4       EventAddSideSpikes
 000A:068995B0       HandlerSideSpikes
 000A:06899638       j_j_BattleEventVar_GetValue_30
 000A:0689963C       j_BattleEventVar_GetValue_30
 000A:06899648       j_j_GetSideFromMonID_7
 000A:0689964C       j_GetSideFromMonID_7
 000A:06899658       j_j_Handler_CheckFloating
 000A:0689965C       j_Handler_CheckFloating
 000A:06899668       j_j_BattleHandler_PushWork_13
 000A:0689966C       j_BattleHandler_PushWork_13
 000A:06899678       j_j_Handler_GetPokeParam_5
 000A:0689967C       j_Handler_GetPokeParam_5
 000A:06899688       j_j_DivideMaxHPZeroCheck_1
 000A:0689968C       j_DivideMaxHPZeroCheck_1
 000A:06899698       j_j_BattleHandler_StrSetup_9
 000A:0689969C       j_BattleHandler_StrSetup_9
 000A:068996A8       j_j_BattleHandler_AddArg_11
 000A:068996AC       j_BattleHandler_AddArg_11
 000A:068996B8       j_j_BattleHandler_PopWork_13
 000A:068996BC       j_BattleHandler_PopWork_13
 000A:068996C8       EventAddSideToxicSpikes
 000A:068996D4       HandlerSideToxicSpikes
 000A:06899780       j_j_BattleEventVar_GetValue_31
 000A:06899784       j_BattleEventVar_GetValue_31
 000A:06899790       j_j_GetSideFromMonID_8
 000A:06899794       j_GetSideFromMonID_8
 000A:068997A0       j_j_Handler_CheckFloating_0
 000A:068997A4       j_Handler_CheckFloating_0
 000A:068997B0       j_j_Handler_GetPokeParam_6
 000A:068997B4       j_Handler_GetPokeParam_6
 000A:068997C0       j_j_DoesMonHaveType
 000A:068997C4       j_DoesMonHaveType
 000A:068997D0       j_j_BattleHandler_PushWork_14
 000A:068997D4       j_BattleHandler_PushWork_14
 000A:068997E0       j_j_BattleHandler_PopWork_14
 000A:068997E4       j_BattleHandler_PopWork_14
 000A:068997F0       j_j_BattleHandler_PushWork_15
 000A:068997F4       j_BattleHandler_PushWork_15
 000A:06899800       j_j_SICKCONT_MakeBadlyPoisoned
 000A:06899804       j_SICKCONT_MakeBadlyPoisoned
 000A:06899810       j_j_SICKCONT_MakePermanent
 000A:06899814       j_SICKCONT_MakePermanent
 000A:06899820       j_j_BattleHandler_PopWork_15
 000A:06899824       j_BattleHandler_PopWork_15
 000A:06899830       EventAddSideRainbow
 000A:0689983C       HandlerSideRainbow
 000A:06899864       j_j_BattleEventVar_GetValue_32
 000A:06899868       j_BattleEventVar_GetValue_32
 000A:06899874       j_j_GetSideFromMonID_9
 000A:06899878       j_GetSideFromMonID_9
 000A:06899884       j_j_BattleEventVar_GetValue_33
 000A:06899888       j_BattleEventVar_GetValue_33
 000A:06899894       j_j_BattleEventVar_RewriteValue_6
 000A:06899898       j_BattleEventVar_RewriteValue_6
 000A:068998A4       HandlerSideRainbowFlinch
 000A:068998C4       j_j_BattleEventVar_GetValue_34
 000A:068998C8       j_BattleEventVar_GetValue_34
 000A:068998D4       j_j_GetSideFromMonID_10
 000A:068998D8       j_GetSideFromMonID_10
 000A:068998E4       j_j_BattleEventVar_RewriteValue_7
 000A:068998E8       j_BattleEventVar_RewriteValue_7
 000A:068998F4       EventAddSideSeaOfFire
 000A:06899900       HandlerSideSeaOfFire
 000A:068999B0       j_j_BattleEventVar_GetValue_35
 000A:068999B4       j_BattleEventVar_GetValue_35
 000A:068999C0       j_j_Handler_DoesBattleMonExist
 000A:068999C4       j_Handler_DoesBattleMonExist
 000A:068999D0       j_j_Handler_CheckMatchup_1
 000A:068999D4       j_Handler_CheckMatchup_1
 000A:068999E0       j_j_GetSideFromMonID_11
 000A:068999E4       j_GetSideFromMonID_11
 000A:068999F0       j_j_Handler_GetPokeParam_7
 000A:068999F4       j_Handler_GetPokeParam_7
 000A:06899A00       j_j_DoesMonHaveType_0
 000A:06899A04       j_DoesMonHaveType_0
 000A:06899A10       j_j_BattleHandler_PushWork_16
 000A:06899A14       j_BattleHandler_PushWork_16
 000A:06899A20       j_j_Handler_PokeIDToPokePos_1
 000A:06899A24       j_Handler_PokeIDToPokePos_1
 000A:06899A30       j_j_BattleHandler_PopWork_16
 000A:06899A34       j_BattleHandler_PopWork_16
 000A:06899A40       j_j_BattleHandler_PushWork_17
 000A:06899A44       j_BattleHandler_PushWork_17
 000A:06899A50       j_j_DivideMaxHPZeroCheck_2
 000A:06899A54       j_DivideMaxHPZeroCheck_2
 000A:06899A60       j_j_BattleHandler_StrSetup_10
 000A:06899A64       j_BattleHandler_StrSetup_10
 000A:06899A70       j_j_BattleHandler_AddArg_12
 000A:06899A74       j_BattleHandler_AddArg_12
 000A:06899A80       j_j_BattleHandler_PopWork_17
 000A:06899A84       j_BattleHandler_PopWork_17
 000A:06899A90       EventAddSideSwamp
 000A:06899A9C       HandlerSideSwamp
 000A:06899AC0       j_j_BattleEventVar_GetValue_36
 000A:06899AC4       j_BattleEventVar_GetValue_36
 000A:06899AD0       j_j_GetSideFromMonID_12
 000A:06899AD4       j_GetSideFromMonID_12
 000A:06899AE0       j_j_BattleEventVar_MulValue_3
 000A:06899AE4       j_BattleEventVar_MulValue_3
 000A:06899AF0       BtlvScd_Create
 000A:06899BDC       j_j_GFL_HeapAllocate
 000A:06899BE0       j_GFL_HeapAllocate
 000A:06899BEC       j_BattleClient_GetMyID_0
 000A:06899BF0       j_BattleClient_GetMyID
 000A:06899BFC       j_POKECON_GetPartyDataConst_4
 000A:06899C0C       j_j_GFL_StrBufCreate
 000A:06899C10       j_GFL_StrBufCreate
 000A:06899C4C       j_MainModule_GetGameData_1
 000A:06899C7C       BtlvScd_CreateBtlvInput
 000A:06899D1C       j_j_MainModule_GetGameData
 000A:06899D20       j_MainModule_GetGameData
 000A:06899D2C       j_j_BtlSetup_GetBattleStyle
 000A:06899D30       j_BtlSetup_GetBattleStyle
 000A:06899D3C       j_j_BtlSetup_GetBattleType
 000A:06899D40       j_BtlSetup_GetBattleType
 000A:06899D4C       j_j_BtlvEffectMain_GetPalAnm
 000A:06899D50       j_BtlvEffectMain_GetPalAnm
 000A:06899D5C       j_j_MainModule_GetBattleSetupType
 000A:06899D60       j_MainModule_GetBattleSetupType
 000A:06899D6C       j_j_MainModule_GetGameOptions
 000A:06899D70       j_MainModule_GetGameOptions
 000A:06899D8C       j_j_GFL_BGSysSetBGEnabledB
 000A:06899D90       j_GFL_BGSysSetBGEnabledB
 000A:06899DC4       j_j_BtlvInput_Exit
 000A:06899DC8       j_BtlvInput_Exit
 000A:06899E24       nullsub_34
 000A:06899E30       nullsub_33
 000A:06899E78       j_j_BtlvInput_SetupBottomScreenMenuGraphics
 000A:06899E7C       j_BtlvInput_SetupBottomScreenMenuGraphics
 000A:06899ED0       BtlvScd_Free
 000A:06899F04       j_j_MainModule_GetGameData_0
 000A:06899F08       j_MainModule_GetGameData_0
 000A:06899F24       j_j_GFL_TextRndFree
 000A:06899F28       j_GFL_TextRndFree
 000A:06899F44       j_j_BtlvInput_Free
 000A:06899F48       j_BtlvInput_Free
 000A:0689A0DC       j_j_BattleAction_SetNull
 000A:0689A0E0       j_BattleAction_SetNull
 000A:0689A0EC       j_j_BattleAction_SetNull_0
 000A:0689A0F0       j_BattleAction_SetNull_0
 000A:0689A0FC       j_j_BattleAction_SetNull_1
 000A:0689A100       j_BattleAction_SetNull_1
 000A:0689A27A       jpt_689A278
 000A:0689A2A6       def_689A278
 000A:0689A51C       j_sys_memset16
 000A:0689A524       j_j_BattleMon_GetID
 000A:0689A528       j_BattleMon_GetID
 000A:0689A534       j_j_MainModule_PokeIDToPokePos_0
 000A:0689A538       j_MainModule_PokeIDToPokePos_0
 000A:0689A544       j_j_MainModule_BattlePosToViewPos
 000A:0689A548       j_MainModule_BattlePosToViewPos
 000A:0689A564       j_j_BtlSetup_GetBattleStyle_0
 000A:0689A568       j_BtlSetup_GetBattleStyle_0
 000A:0689A574       j_j_GetPlayerClientID
 000A:0689A578       j_GetPlayerClientID
 000A:0689A584       j_j_MainModule_GetPartnerClientID
 000A:0689A588       j_MainModule_GetPartnerClientID
 000A:0689A594       j_j_POKECON_GetPartyDataConst
 000A:0689A598       j_POKECON_GetPartyDataConst
 000A:0689A5A4       j_j_BattleParty_GetPartyCount
 000A:0689A5A8       j_BattleParty_GetPartyCount
 000A:0689A5B4       j_j_POKECON_GetPartyDataConst_0
 000A:0689A5B8       j_POKECON_GetPartyDataConst_0
 000A:0689A5C4       j_j_BattleParty_GetPartyCount_0
 000A:0689A5C8       j_BattleParty_GetPartyCount_0
 000A:0689A5D4       j_j_POKECON_GetPartyDataConst_1
 000A:0689A5D8       j_POKECON_GetPartyDataConst_1
 000A:0689A5E4       j_j_BattleParty_GetPartyCount_1
 000A:0689A5E8       j_BattleParty_GetPartyCount_1
 000A:0689A5F4       j_j_BattleParty_GetPartyCount_2
 000A:0689A5F8       j_BattleParty_GetPartyCount_2
 000A:0689A604       j_j_MainModule_ViewPosToBattlePos
 000A:0689A608       j_MainModule_ViewPosToBattlePos
 000A:0689A614       j_j_POKECON_GetFrontPokeDataConst_0
 000A:0689A618       j_POKECON_GetFrontPokeDataConst_0
 000A:0689A624       j_j_BattleMon_IsFainted_0
 000A:0689A628       j_BattleMon_IsFainted_0
 000A:0689A634       j_j_GetBattleMonSpecies
 000A:0689A638       j_GetBattleMonSpecies
 000A:0689A644       j_j_BattleMon_GetViewSrcData
 000A:0689A648       j_BattleMon_GetViewSrcData
 000A:0689A654       j_j_PokeParty_GetParam
 000A:0689A658       j_PokeParty_GetParam
 000A:0689A664       j_j_GetBattleMonStat_3
 000A:0689A668       j_GetBattleMonStat_3
 000A:0689A674       j_j_MainModule_ViewPosToBattlePos_0
 000A:0689A678       j_MainModule_ViewPosToBattlePos_0
 000A:0689A684       j_j_POKECON_GetFrontPokeDataConst_1
 000A:0689A688       j_POKECON_GetFrontPokeDataConst_1
 000A:0689A694       j_j_BattleMon_IsFainted_1
 000A:0689A698       j_BattleMon_IsFainted_1
 000A:0689A6A4       j_j_GetBattleMonSpecies_0
 000A:0689A6A8       j_GetBattleMonSpecies_0
 000A:0689A6B4       j_j_BattleMon_GetViewSrcData_0
 000A:0689A6B8       j_BattleMon_GetViewSrcData_0
 000A:0689A6C4       j_j_PokeParty_GetParam_0
 000A:0689A6C8       j_PokeParty_GetParam_0
 000A:0689A6D4       j_j_GetBattleMonStat_4
 000A:0689A6D8       j_GetBattleMonStat_4
 000A:0689A6E4       j_j_MainModule_ViewPosToBattlePos_1
 000A:0689A6E8       j_MainModule_ViewPosToBattlePos_1
 000A:0689A6F4       j_j_POKECON_GetFrontPokeDataConst_2
 000A:0689A6F8       j_POKECON_GetFrontPokeDataConst_2
 000A:0689A704       j_j_BattleMon_IsFainted_2
 000A:0689A708       j_BattleMon_IsFainted_2
 000A:0689A714       j_j_GetBattleMonSpecies_1
 000A:0689A718       j_GetBattleMonSpecies_1
 000A:0689A724       j_j_BattleMon_GetViewSrcData_1
 000A:0689A728       j_BattleMon_GetViewSrcData_1
 000A:0689A734       j_j_PokeParty_GetParam_1
 000A:0689A738       j_PokeParty_GetParam_1
 000A:0689A744       j_j_GetBattleMonStat_5
 000A:0689A748       j_GetBattleMonStat_5
 000A:0689A754       j_j_MainModule_ViewPosToBattlePos_2
 000A:0689A758       j_MainModule_ViewPosToBattlePos_2
 000A:0689A764       j_j_POKECON_GetFrontPokeDataConst_3
 000A:0689A768       j_POKECON_GetFrontPokeDataConst_3
 000A:0689A774       j_j_BattleMon_IsFainted_3
 000A:0689A778       j_BattleMon_IsFainted_3
 000A:0689A784       j_j_GetBattleMonSpecies_2
 000A:0689A788       j_GetBattleMonSpecies_2
 000A:0689A794       j_j_BattleMon_GetViewSrcData_2
 000A:0689A798       j_BattleMon_GetViewSrcData_2
 000A:0689A7A4       j_j_PokeParty_GetParam_2
 000A:0689A7A8       j_PokeParty_GetParam_2
 000A:0689A7B4       j_j_GetBattleMonStat_6
 000A:0689A7B8       j_GetBattleMonStat_6
 000A:0689A7C4       j_j_BtlSetup_GetBattleType_0
 000A:0689A7C8       j_BtlSetup_GetBattleType_0
 000A:0689A7D4       j_j_BtlSetup_GetBattleType_1
 000A:0689A7D8       j_BtlSetup_GetBattleType_1
 000A:0689A7E4       j_j_MainModule_GetPlayerAllyClientID
 000A:0689A7E8       j_MainModule_GetPlayerAllyClientID
 000A:0689A7F4       j_j_MainModule_GetPlayerAllyClientID_0
 000A:0689A7F8       j_MainModule_GetPlayerAllyClientID_0
 000A:0689A804       j_j_POKECON_GetPartyDataConst_2
 000A:0689A808       j_POKECON_GetPartyDataConst_2
 000A:0689A814       j_j_BattleParty_GetPartyCount_3
 000A:0689A818       j_BattleParty_GetPartyCount_3
 000A:0689A824       j_j_POKECON_GetPartyDataConst_3
 000A:0689A828       j_POKECON_GetPartyDataConst_3
 000A:0689A834       j_j_BattleParty_GetPartyCount_4
 000A:0689A838       j_BattleParty_GetPartyCount_4
 000A:0689A844       j_j_BattleParty_GetMonData_0
 000A:0689A848       j_BattleParty_GetMonData_0
 000A:0689A854       j_j_BattleMon_IsFainted_4
 000A:0689A858       j_BattleMon_IsFainted_4
 000A:0689A864       j_j_GetBattleMonStatus_3
 000A:0689A868       j_GetBattleMonStatus_3
 000A:0689A874       j_j_CanPokemonBattle
 000A:0689A878       j_CanPokemonBattle
 000A:0689A884       j_j_j_BattleField_GetWeatherCore
 000A:0689A888       j_j_BattleField_GetWeatherCore
 000A:0689A894       j_j_BtlvInput_SetupBottomScreenMenuGraphics_0
 000A:0689A898       j_BtlvInput_SetupBottomScreenMenuGraphics_0
 000A:0689A934       j_j_BattleAction_SetEscapeParam
 000A:0689A938       j_BattleAction_SetEscapeParam
 000A:0689A944       j_j_BtlvInput_SetupBottomScreenMenuGraphics_1
 000A:0689A948       j_BtlvInput_SetupBottomScreenMenuGraphics_1
 000A:0689AA50       j_j_GetBattleMonMoveCount_1
 000A:0689AA54       j_GetBattleMonMoveCount_1
 000A:0689AA60       j_j_TransformCheck
 000A:0689AA64       j_TransformCheck
 000A:0689AA70       j_j_Move_GetIDAndPP
 000A:0689AA74       j_Move_GetIDAndPP
 000A:0689AA80       j_j_BattleMon_GetID_0
 000A:0689AA84       j_BattleMon_GetID_0
 000A:0689AA90       j_j_MainModule_PokeIDToPokePos_0_0
 000A:0689AA94       j_MainModule_PokeIDToPokePos_0_0
 000A:0689AAA0       j_j_MainModule_BattlePosToViewPos_0
 000A:0689AAA4       j_MainModule_BattlePosToViewPos_0
 000A:0689AAB0       j_j_BtlvInput_SetupBottomScreenMenuGraphics_2
 000A:0689AAB4       j_BtlvInput_SetupBottomScreenMenuGraphics_2
 000A:0689ABB0       j_j_BattleMon_GetID_1
 000A:0689ABB4       j_BattleMon_GetID_1
 000A:0689ABC0       j_j_MainModule_PokeIDToPokePos_0_1
 000A:0689ABC4       j_MainModule_PokeIDToPokePos_0_1
 000A:0689ABD0       j_j_MainModule_BattlePosToViewPos_1
 000A:0689ABD4       j_MainModule_BattlePosToViewPos_1
 000A:0689ABE0       j_j_BtlSetup_GetBattleStyle_1
 000A:0689ABE4       j_BtlSetup_GetBattleStyle_1
 000A:0689ABF0       j_j_BtlSetup_GetBattleStyle_2
 000A:0689ABF4       j_BtlSetup_GetBattleStyle_2
 000A:0689AC10       j_j_BattleAction_SetNull_2
 000A:0689AC14       j_BattleAction_SetNull_2
 000A:0689AC20       j_j_GetBattleMonMoveCount_2
 000A:0689AC24       j_GetBattleMonMoveCount_2
 000A:0689AC30       j_j_MoveGetID
 000A:0689AC34       j_MoveGetID
 000A:0689AC40       j_j_BattleAction_SetFightParam
 000A:0689AC44       j_BattleAction_SetFightParam
 000A:0689AC60       j_j_BtlSetup_GetBattleStyle_3
 000A:0689AC64       j_BtlSetup_GetBattleStyle_3
 000A:0689ACC8       j_j_BtlvInput_SetupBottomScreenMenuGraphics_3
 000A:0689ACCC       j_BtlvInput_SetupBottomScreenMenuGraphics_3
 000A:0689ADA4       j_j_MoveGetID_0
 000A:0689ADA8       j_MoveGetID_0
 000A:0689ADC4       j_j_BattleAction_SetFightParam_0
 000A:0689ADC8       j_BattleAction_SetFightParam_0
 000A:0689ADD4       j_j_BattleAction_SetFightParam_1
 000A:0689ADD8       j_BattleAction_SetFightParam_1
 000A:0689ADF4       j_j_BattleAction_SetNull_3
 000A:0689ADF8       j_BattleAction_SetNull_3
 000A:0689AE04       TargetSelect_Clear
 000A:0689AE24       j_j_MainModule_ExpandBattlePos
 000A:0689AE28       j_MainModule_ExpandBattlePos
 000A:0689AE4C       j_j_MainModule_ExpandBattlePos_0
 000A:0689AE50       j_MainModule_ExpandBattlePos_0
 000A:0689AE74       j_j_MainModule_ExpandBattlePos_1
 000A:0689AE78       j_MainModule_ExpandBattlePos_1
 000A:0689AED4       j_j_BtlSetup_GetBattleStyle_4
 000A:0689AED8       j_BtlSetup_GetBattleStyle_4
 000A:0689AEE4       j_j_getMoveFlag
 000A:0689AEE8       j_getMoveFlag
 000A:0689AF5C       j_j_MainModule_ViewPosToBattlePos_3
 000A:0689AF60       j_MainModule_ViewPosToBattlePos_3
 000A:0689AF6C       StartMoveTargetSelect
 000A:0689B0CC       j_sys_memset16_0
 000A:0689B0D4       j_j_BattleMon_GetID_2
 000A:0689B0D8       j_BattleMon_GetID_2
 000A:0689B0E4       j_j_MainModule_PokeIDToPokePos_0_2
 000A:0689B0E8       j_MainModule_PokeIDToPokePos_0_2
 000A:0689B0F4       j_j_MainModule_BattlePosToViewPos_2
 000A:0689B0F8       j_MainModule_BattlePosToViewPos_2
 000A:0689B104       j_j_PML_MoveGetParam_1
 000A:0689B108       j_PML_MoveGetParam_1
 000A:0689B114       j_j_DetermineCurseTargetData
 000A:0689B118       j_DetermineCurseTargetData
 000A:0689B124       j_j_getMoveFlag_0
 000A:0689B128       j_getMoveFlag_0
 000A:0689B134       j_j_POKECON_GetFrontPokeDataConst_4
 000A:0689B138       j_POKECON_GetFrontPokeDataConst_4
 000A:0689B144       j_j_BattleMon_GetViewSrcData_3
 000A:0689B148       j_BattleMon_GetViewSrcData_3
 000A:0689B154       j_j_MainModule_BattlePosToViewPos_3
 000A:0689B158       j_MainModule_BattlePosToViewPos_3
 000A:0689B164       j_j_GetBattleMonStat_7
 000A:0689B168       j_GetBattleMonStat_7
 000A:0689B174       j_j_GetBattleMonSpecies_3
 000A:0689B178       j_GetBattleMonSpecies_3
 000A:0689B184       j_j_GetBattleMonStat_8
 000A:0689B188       j_GetBattleMonStat_8
 000A:0689B194       j_j_BattleMon_GetViewSrcData_4
 000A:0689B198       j_BattleMon_GetViewSrcData_4
 000A:0689B1A4       j_j_PokeParty_GetParam_3
 000A:0689B1A8       j_PokeParty_GetParam_3
 000A:0689B1B4       j_j_BattleMon_GetViewSrcData_5
 000A:0689B1B8       j_BattleMon_GetViewSrcData_5
 000A:0689B1C4       j_j_PokeParty_GetSex
 000A:0689B1C8       j_PokeParty_GetSex
 000A:0689B1D4       j_j_GetBattleMonStatus_4
 000A:0689B1D8       j_GetBattleMonStatus_4
 000A:0689B1E4       j_j_BtlvInput_SetupBottomScreenMenuGraphics_4
 000A:0689B1E8       j_BtlvInput_SetupBottomScreenMenuGraphics_4
 000A:0689B2D0       j_j_BtlSetup_GetBattleStyle_5
 000A:0689B2D4       j_BtlSetup_GetBattleStyle_5
 000A:0689B2E0       j_j_BattleMon_GetID_3
 000A:0689B2E4       j_BattleMon_GetID_3
 000A:0689B2F0       j_j_MainModule_PokeIDToPokePos_0_3
 000A:0689B2F4       j_MainModule_PokeIDToPokePos_0_3
 000A:0689B310       j_j_BattleAction_SetFightParam_2
 000A:0689B314       j_BattleAction_SetFightParam_2
 000A:0689B320       j_j_PML_MoveGetParam_2
 000A:0689B324       j_PML_MoveGetParam_2
 000A:0689B330       j_j_DetermineCurseTargetData_0
 000A:0689B334       j_DetermineCurseTargetData_0
 000A:0689B440       j_j_BattleMon_GetID_4
 000A:0689B444       j_BattleMon_GetID_4
 000A:0689B450       j_j_MainModule_PokeIDToPokePos_0_4
 000A:0689B454       j_MainModule_PokeIDToPokePos_0_4
 000A:0689B460       j_j_MainModule_BattlePosToViewPos_4
 000A:0689B464       j_MainModule_BattlePosToViewPos_4
 000A:0689B470       j_j_BtlSetup_GetBattleStyle_6
 000A:0689B474       j_BtlSetup_GetBattleStyle_6
 000A:0689B480       j_j_getMoveFlag_1
 000A:0689B484       j_getMoveFlag_1
 000A:0689B4A0       j_j_BattleAction_SetFightParam_3
 000A:0689B4A4       j_BattleAction_SetFightParam_3
 000A:0689B4B0       TargetSelect_GetMoveRange
 000A:0689B50C       jpt_689B50A
 000A:0689B62C       def_689B50A
 000A:0689B630       j_j_PML_MoveGetParam_3
 000A:0689B634       j_PML_MoveGetParam_3
 000A:0689B640       j_j_BattleMon_GetID_5
 000A:0689B644       j_BattleMon_GetID_5
 000A:0689B650       j_j_MainModule_PokeIDToPokePos_0_5
 000A:0689B654       j_MainModule_PokeIDToPokePos_0_5
 000A:0689B660       j_j_DetermineCurseTargetData_1
 000A:0689B664       j_DetermineCurseTargetData_1
 000A:0689B6D0       j_j_BtlvInput_SetupBottomScreenMenuGraphics_5
 000A:0689B6D4       j_BtlvInput_SetupBottomScreenMenuGraphics_5
 000A:0689B718       j_j_BtlvInput_SetupBottomScreenMenuGraphics_6
 000A:0689B71C       j_BtlvInput_SetupBottomScreenMenuGraphics_6
 000A:0689B7A8       j_j_BtlvInput_SetupBottomScreenMenuGraphics_7
 000A:0689B7AC       j_BtlvInput_SetupBottomScreenMenuGraphics_7
 000A:0689B814       jpt_689B812
 000A:0689B888       def_689B812
 000A:0689B89C       j_j_BtlvInput_SetupBottomScreenMenuGraphics_8
 000A:0689B8A0       j_BtlvInput_SetupBottomScreenMenuGraphics_8
 000A:0689B8DC       BtlvScd_SetupVsRecorderBottomScreen
 000A:0689B938       Condition_TurnCheckCallback
 000A:0689B97C       j_j_BattleMon_GetID_6
 000A:0689B980       j_BattleMon_GetID_6
 000A:0689B98C       Condition_TurnCheckStart
 000A:0689B9CC       jpt_689B9CA
 000A:0689B9D8       def_689B9CA
 000A:0689BA2C       j_j_BattleMon_IsFainted_5
 000A:0689BA30       j_BattleMon_IsFainted_5
 000A:0689BA3C       j_j_Condition_CalcDamage
 000A:0689BA40       j_Condition_CalcDamage
 000A:0689BA4C       j_j_ConditionDamageRecall
 000A:0689BA50       j_ConditionDamageRecall
 000A:0689BA5C       Condition_CreateDamageMessage
 000A:0689BA8C       j_j_BattleHandler_StrSetup_11
 000A:0689BA90       j_BattleHandler_StrSetup_11
 000A:0689BA9C       j_j_BattleMon_GetID_7
 000A:0689BAA0       j_BattleMon_GetID_7
 000A:0689BAAC       j_j_BattleHandler_AddArg_13
 000A:0689BAB0       j_BattleHandler_AddArg_13
 000A:0689BABC       Condition_GetDamageString
 000A:0689BACC       jpt_689BACA
 000A:0689BAF4       def_689BACA
 000A:0689BB04       Condition_HandlerPerishSong
 000A:0689BB44       j_j_BattleMon_IsFainted_6
 000A:0689BB48       j_BattleMon_IsFainted_6
 000A:0689BB54       j_j_GetConditionContinuationParam
 000A:0689BB58       j_GetConditionContinuationParam
 000A:0689BB64       j_j_Condition_GetTurnMax
 000A:0689BB68       j_Condition_GetTurnMax
 000A:0689BB74       j_j_GetConditiionTurnCount
 000A:0689BB78       j_GetConditiionTurnCount
 000A:0689BB84       Condition_HandlerLeechSeed
 000A:0689BC4C       j_j_GetConditionContinuationParam_0
 000A:0689BC50       j_GetConditionContinuationParam_0
 000A:0689BC5C       j_j_Condition_GetParam_0
 000A:0689BC60       j_Condition_GetParam_0
 000A:0689BC6C       j_j_Handler_GetExistPokeID
 000A:0689BC70       j_Handler_GetExistPokeID
 000A:0689BC7C       j_j_DivideMaxHPZeroCheck_3
 000A:0689BC80       j_DivideMaxHPZeroCheck_3
 000A:0689BC8C       j_j_GetBattleMonStat_9
 000A:0689BC90       j_GetBattleMonStat_9
 000A:0689BC9C       j_j_BattleHandler_PushWork_18
 000A:0689BCA0       j_BattleHandler_PushWork_18
 000A:0689BCAC       j_j_BattleHandler_StrSetup_12
 000A:0689BCB0       j_BattleHandler_StrSetup_12
 000A:0689BCBC       j_j_BattleHandler_AddArg_14
 000A:0689BCC0       j_BattleHandler_AddArg_14
 000A:0689BCCC       j_j_Handler_PokeIDToPokePos_2
 000A:0689BCD0       j_Handler_PokeIDToPokePos_2
 000A:0689BCDC       j_j_BattleHandler_PopWork_18
 000A:0689BCE0       j_BattleHandler_PopWork_18
 000A:0689BCEC       j_j_BattleHandler_PushWork_19
 000A:0689BCF0       j_BattleHandler_PushWork_19
 000A:0689BCFC       j_j_BattleHandler_PopWork_19
 000A:0689BD00       j_BattleHandler_PopWork_19
 000A:0689BD0C       Condition_HandlerIngrain
 000A:0689BD60       j_j_IsMonFullHP_4
 000A:0689BD64       j_IsMonFullHP_4
 000A:0689BD70       j_j_BattleHandler_PushWork_20
 000A:0689BD74       j_BattleHandler_PushWork_20
 000A:0689BD80       j_j_DivideMaxHPZeroCheck_4
 000A:0689BD84       j_DivideMaxHPZeroCheck_4
 000A:0689BD90       j_j_BattleHandler_StrSetup_13
 000A:0689BD94       j_BattleHandler_StrSetup_13
 000A:0689BDA0       j_j_BattleHandler_AddArg_15
 000A:0689BDA4       j_BattleHandler_AddArg_15
 000A:0689BDB0       j_j_BattleHandler_PopWork_20
 000A:0689BDB4       j_BattleHandler_PopWork_20
 000A:0689BDC0       Condition_HandlerBind
 000A:0689BEC0       j_j_BattleMon_IsFainted_7
 000A:0689BEC4       j_BattleMon_IsFainted_7
 000A:0689BED0       j_j_GetConditionContinuationParam_1
 000A:0689BED4       j_GetConditionContinuationParam_1
 000A:0689BEE0       j_j_Condition_GetParam_1
 000A:0689BEE4       j_Condition_GetParam_1
 000A:0689BEF0       j_j_BattleHandler_PushWork_21
 000A:0689BEF4       j_BattleHandler_PushWork_21
 000A:0689BF00       j_j_Condition_GetFlag
 000A:0689BF04       j_Condition_GetFlag
 000A:0689BF10       j_j_DivideMaxHPZeroCheck_5
 000A:0689BF14       j_DivideMaxHPZeroCheck_5
 000A:0689BF20       j_j_Handler_PokeIDToPokePos_3
 000A:0689BF24       j_Handler_PokeIDToPokePos_3
 000A:0689BF30       j_j_BattleHandler_StrSetup_14
 000A:0689BF34       j_BattleHandler_StrSetup_14
 000A:0689BF40       j_j_BattleHandler_AddArg_16
 000A:0689BF44       j_BattleHandler_AddArg_16
 000A:0689BF50       j_j_BattleHandler_AddArg_17
 000A:0689BF54       j_BattleHandler_AddArg_17
 000A:0689BF60       j_j_BattleHandler_PopWork_21
 000A:0689BF64       j_BattleHandler_PopWork_21
 000A:0689BF70       Condition_HandlerAquaRing
 000A:0689BFCC       j_j_IsMonFullHP_5
 000A:0689BFD0       j_IsMonFullHP_5
 000A:0689BFDC       j_j_BattleMon_IsFainted_8
 000A:0689BFE0       j_BattleMon_IsFainted_8
 000A:0689BFEC       j_j_BattleHandler_PushWork_22
 000A:0689BFF0       j_BattleHandler_PushWork_22
 000A:0689BFFC       j_j_DivideMaxHPZeroCheck_6
 000A:0689C000       j_DivideMaxHPZeroCheck_6
 000A:0689C00C       j_j_BattleHandler_StrSetup_15
 000A:0689C010       j_BattleHandler_StrSetup_15
 000A:0689C01C       j_j_BattleHandler_AddArg_18
 000A:0689C020       j_BattleHandler_AddArg_18
 000A:0689C02C       j_j_BattleHandler_PopWork_22
 000A:0689C030       j_BattleHandler_PopWork_22
 000A:0689C03C       Condition_HandlerEncore
 000A:0689C07C       j_j_GetConditionContinuationParam_2
 000A:0689C080       j_GetConditionContinuationParam_2
 000A:0689C08C       j_j_Condition_GetParam_2
 000A:0689C090       j_Condition_GetParam_2
 000A:0689C09C       j_j_BattleMon_GetMovePPByID
 000A:0689C0A0       j_BattleMon_GetMovePPByID
 000A:0689C0AC       j_j_BattleHandler_PushWork_23
 000A:0689C0B0       j_BattleHandler_PushWork_23
 000A:0689C0BC       j_j_BattleHandler_PopWork_23
 000A:0689C0C0       j_BattleHandler_PopWork_23
 000A:0689C0CC       Condition_TurnCheckCure
 000A:0689C120       jpt_689C11E
 000A:0689C15A       def_689C11E
 000A:0689C160       j_j_BattleHandler_PushWork_24
 000A:0689C164       j_BattleHandler_PushWork_24
 000A:0689C170       j_j_BattleHandler_PopWork_24
 000A:0689C174       j_BattleHandler_PopWork_24
 000A:0689C180       Condition_CureYawn
 000A:0689C1D0       j_j_RandomInRange
 000A:0689C1D4       j_RandomInRange
 000A:0689C1E0       j_j_GetBattleMonStatus_5
 000A:0689C1E4       j_GetBattleMonStatus_5
 000A:0689C1F0       j_j_BattleMon_GetID_8
 000A:0689C1F4       j_BattleMon_GetID_8
 000A:0689C200       j_j_BattleHandler_PushWork_25
 000A:0689C204       j_BattleHandler_PushWork_25
 000A:0689C210       j_j_SICKCONT_MakeTurn
 000A:0689C214       j_SICKCONT_MakeTurn
 000A:0689C220       j_j_BattleHandler_PopWork_25
 000A:0689C224       j_BattleHandler_PopWork_25
 000A:0689C230       Condition_CurePerishSong
 000A:0689C25C       j_j_BattleMon_GetID_9
 000A:0689C260       j_BattleMon_GetID_9
 000A:0689C26C       j_j_BattleHandler_PushWork_26
 000A:0689C270       j_BattleHandler_PushWork_26
 000A:0689C27C       j_j_BattleHandler_PopWork_26
 000A:0689C280       j_BattleHandler_PopWork_26
 000A:0689C28C       CreatePerishSongCountMessage
 000A:0689C2CC       j_j_BattleMon_GetID_10
 000A:0689C2D0       j_BattleMon_GetID_10
 000A:0689C2DC       j_j_BattleHandler_PushWork_27
 000A:0689C2E0       j_BattleHandler_PushWork_27
 000A:0689C2EC       j_j_BattleHandler_StrSetup_16
 000A:0689C2F0       j_BattleHandler_StrSetup_16
 000A:0689C2FC       j_j_BattleHandler_AddArg_19
 000A:0689C300       j_BattleHandler_AddArg_19
 000A:0689C30C       j_j_BattleHandler_AddArg_20
 000A:0689C310       j_BattleHandler_AddArg_20
 000A:0689C31C       j_j_BattleHandler_PopWork_27
 000A:0689C320       j_BattleHandler_PopWork_27
 000A:0689C32C       Condition_CureEmbargo
 000A:0689C35C       j_j_BattleMon_GetID_11
 000A:0689C360       j_BattleMon_GetID_11
 000A:0689C36C       j_j_BattleHandler_PushWork_28
 000A:0689C370       j_BattleHandler_PushWork_28
 000A:0689C37C       j_j_BattleMon_GetID_12
 000A:0689C380       j_BattleMon_GetID_12
 000A:0689C38C       j_j_BattleHandler_PopWork_28
 000A:0689C390       j_BattleHandler_PopWork_28
 000A:0689C39C       Condition_CureHealBlock
 000A:0689C3CC       j_j_BattleMon_GetID_13
 000A:0689C3D0       j_BattleMon_GetID_13
 000A:0689C3DC       j_j_BattleHandler_PushWork_29
 000A:0689C3E0       j_BattleHandler_PushWork_29
 000A:0689C3EC       j_j_BattleMon_GetID_14
 000A:0689C3F0       j_BattleMon_GetID_14
 000A:0689C3FC       j_j_BattleHandler_PopWork_29
 000A:0689C400       j_BattleHandler_PopWork_29
 000A:0689C40C       GetDefaultConditionString
 000A:0689C424       jpt_689C422
 000A:0689C4A4       def_689C422
 000A:0689C4DC       j_j_Condition_IsBadlyPoisoned
 000A:0689C4E0       j_Condition_IsBadlyPoisoned
 000A:0689C4EC       Condition_MakeDefaultMessage
 000A:0689C54C       j_j_BattleHandler_StrSetup
 000A:0689C550       j_BattleHandler_StrSetup
 000A:0689C55C       j_j_GetMonID_0
 000A:0689C560       j_GetMonID_0
 000A:0689C56C       j_j_BattleHandler_AddArg_0
 000A:0689C570       j_BattleHandler_AddArg_0
 000A:0689C57C       j_j_Condition_GetParam
 000A:0689C580       j_Condition_GetParam
 000A:0689C58C       j_j_BattleHandler_AddArg
 000A:0689C590       j_BattleHandler_AddArg
 000A:0689C59C       j_j_BattleHandler_StrClear
 000A:0689C5A0       j_BattleHandler_StrClear
 000A:0689C5AC       Condition_GetCureStringID
 000A:0689C5EC       Condition_MakeDefaultCureMessage
 000A:0689C668       j_j_BattleHandler_StrSetup_17
 000A:0689C66C       j_BattleHandler_StrSetup_17
 000A:0689C678       j_j_BattleMon_GetID_15
 000A:0689C67C       j_BattleMon_GetID_15
 000A:0689C688       j_j_BattleHandler_AddArg_21
 000A:0689C68C       j_BattleHandler_AddArg_21
 000A:0689C698       j_j_BattleHandler_AddArg_22
 000A:0689C69C       j_BattleHandler_AddArg_22
 000A:0689C6A8       j_j_Condition_GetParam_3
 000A:0689C6AC       j_Condition_GetParam_3
 000A:0689C6B8       j_j_BattleHandler_AddArg_23
 000A:0689C6BC       j_BattleHandler_AddArg_23
 000A:0689C6C8       Condition_CheckUnaffectedByType
 000A:0689C754       j_CheckCondition_1
 000A:0689C764       j_BattleMon_GetMoveCondition
 000A:0689C774       j_Condition_GetParam_4
 000A:0689C784       j_BattleEventVar_GetValue_37
 000A:0689C788       j_EVENTVAR_GetValue
 000A:0689C794       j_Condition_GetFlag_0
 000A:0689C7A4       j_BattleEventVar_RewriteValue_9
 000A:0689C7B4       j_CheckCondition_2
 000A:0689C7C4       j_BattleEventVar_GetValue_38
 000A:0689C7D4       j_BattleEventVar_RewriteValue_10
 000A:0689C7E4       j_CheckCondition_3
 000A:0689C7F4       j_BattleEventVar_GetValue_39
 000A:0689C804       j_BattleEventVar_RewriteValue_11
 000A:0689C814       Condition_CheckIfTrapped
 000A:0689C83C       j_j_CheckCondition
 000A:0689C840       j_CheckCondition
 000A:0689C84C       j_j_CheckCondition_0
 000A:0689C850       j_CheckCondition_0
 000A:0689C85C       j_j_BattleEventVar_RewriteValue_8
 000A:0689C860       j_BattleEventVar_RewriteValue_8
 000A:0689C86C       Condition_CheckFloating
 000A:0689C8BC       j_CheckCondition_4
 000A:0689C8CC       j_BattleEventVar_RewriteValue_12
 000A:0689C8DC       j_CheckCondition_5
 000A:0689C8EC       j_BattleEventVar_RewriteValue_13
 000A:0689C8FC       j_CheckCondition_6
 000A:0689C90C       j_CheckCondition_7
 000A:0689C91C       j_BattleEventVar_RewriteValue_14
 000A:0689C92C       Condition_CheckForceSwitchFail
 000A:0689C980       j_CheckCondition_8
 000A:0689C990       j_BattleEventVar_RewriteValue_15
 000A:0689C9A0       j_BattleMon_GetID_18
 000A:0689C9A4       j_GetMonID
 000A:0689C9B0       j_BattleHandler_PushWork_30
 000A:0689C9C0       j_BattleHandler_StrSetup_18
 000A:0689C9D0       j_BattleHandler_AddArg_24
 000A:0689C9E0       j_BattleHandler_PopWork_30
 000A:0689C9F0       Condition_CheckIfBatonPassInherited
 000A:0689CA10       Tables_CheckTableElems
 000A:0689CA34       Tables_IsEncoreFailMove
 000A:0689CA44       Tables_IsMeFirstFailMove
 000A:0689CA54       Tables_IsDelayedHitMove
 000A:0689CA64       Tables_IsPressureAffectedMove
 000A:0689CA74       Tables_IsComboMove
 000A:0689CA84       Tables_IsItemUrgeFailItem
 000A:0689CA94       Tables_IsEscapeItem
 000A:0689CAA4       Tables_IsRolePlayFailAbility
 000A:0689CAC4       j_Tables_IsTraceFailAbility_1
 000A:0689CACC       Tables_IsTraceFailAbility
 000A:0689CADC       Tables_IsSkillSwapFailAbility
 000A:0689CAFC       Tables_IsAbilityMultitype
 000A:0689CB08       Tables_IsArceusPlate
 000A:0689CB18       Tables_IsGenesectDrive
 000A:0689CB28       Tables_IsDuskBallBoostedTerrain
 000A:0689CB38       Tables_IsMoldBreakerAffectedAbility
 000A:0689CB48       IsArceus
 000A:0689CB5C       Tables_IsEffectDisableType
 000A:0689CB6C       Tables_GetMentalStatusID
 000A:0689CB80       Tables_GetMoveConditionByTurnCheckOrder
 000A:0689CB94       Tables_IsUncallableMove
 000A:0689CBA4       Tables_IsSleepTalkUncallableMove
 000A:0689CBC4       Tables_IsAssistUncallableMove
 000A:0689CBE4       Tables_IsCopycatUncallableMove
 000A:0689CC04       Tables_IsMimicFailMove
 000A:0689CC14       Tables_GetMetronomeUncallableMoveTable
 000A:0689CC20       PokeSelectParam_Init
 000A:0689CC38       PokeSelectParam_SetProhibitFighting
 000A:0689CC60       PokeSelectParam_SetProhibit
 000A:0689CC68       PokeSelectResult_Init
 000A:0689CC74       PokeSelectResult_Push
 000A:0689CC90       PokeSelectResult_Pop
 000A:0689CC9C       PokeSelectResult_IsCancel
 000A:0689CCA0       PokeSelectResult_GetCount
 000A:0689CCA4       PokeSelectResult_GetLast
 000A:0689CCB4       PokeSelectResult_Get
 000A:0689CCC4       PokeSet_Clear
 000A:0689CCD0       PokeSet_Add
 000A:0689CD40       PokeSet_AddWithDamage
 000A:0689CD9C       PokeSet_Remove
 000A:0689CDF8       PokeSet_Get
 000A:0689CE0C       PokeSet_SeekStart
 000A:0689CE14       PokeSet_SeekNext
 000A:0689CE3C       PokeSet_GetDamage
 000A:0689CE80       PokeSet_GetDamageReal
 000A:0689CEC0       PokeSet_GetCount
 000A:0689CEC8       PokeSet_GetCountMax
 000A:0689CED0       PokeSet_SetDefaultTargetCount
 000A:0689CED8       PokeSet_IsRemovedAll
 000A:0689CF00       PokeSet_CopyAlive
 000A:0689CF44       j_BattleMon_IsFainted_12
 000A:0689CF54       PokeSet_CopyAllies
 000A:0689CFB0       j_BattleMon_GetID_21
 000A:0689CFC0       j_BattleMon_GetID_22
 000A:0689CFD0       j_MainModule_IsAllyMonID_1
 000A:0689CFE0       PokeSet_CopyEnemies
 000A:0689D03C       j_BattleMon_GetID_19
 000A:0689D04C       j_BattleMon_GetID_20
 000A:0689D05C       j_MainModule_IsAllyMonID_0
 000A:0689D06C       PokeSet_RemoveDisablePoke
 000A:0689D09C       j_BattleMon_IsFainted_11
 000A:0689D0AC       PokeSet_SortBySpeed
 000A:0689D158       j_Handler_CalculateSpeed
 000A:0689D168       j_BattleRandom_0
 000A:0689D16C       j_BattleRandom
 000A:0689D178       MoveRecord_Init
 000A:0689D19C       j_sys_memset
 000A:0689D1A4       MoveRecord_Add
 000A:0689D1D8       MoveRecord_SetEffectiveLast
 000A:0689D1EC       MoveRecord_IsUsedMove
 000A:0689D220       MoveRecord_GetUsedMoveCount
 000A:0689D250       MoveRecord_GetPrevEffectiveMove
 000A:0689D284       FaintRecord_ClearTurnRecord
 000A:0689D2A0       FaintRecord_Init
 000A:0689D2BC       FaintRecord_StartTurn
 000A:0689D2E4       FaintRecord_Add
 000A:0689D2FC       FaintRecord_GetCount
 000A:0689D30C       FaintRecord_GetPokeID
 000A:0689D328       FaintRecord_GetExpCheckedFlag
 000A:0689D344       FaintRecord_SetExpCheckedFlag
 000A:0689D35C       FaintRecord_GetLastFaintedPokeID
 000A:0689D384       PosPoke_Init
 000A:0689D3D0       j_PokePos_GetValidPosMax
 000A:0689D3D4       j_GetValidPosMax
 000A:0689D3E0       PosPoke_SetInitialFrontPokemon
 000A:0689D440       j_MainModule_BattlePosToClientIDAndPosIndex
 000A:0689D450       j_GetClientMonData
 000A:0689D460       j_BattleMon_IsFainted_10
 000A:0689D470       j_BattleMon_GetID_17
 000A:0689D480       PosPoke_SwitchOut
 000A:0689D4A8       PosPoke_SwitchIn
 000A:0689D5B0       j_j_BattleMon_IsFainted_9
 000A:0689D5B4       j_BattleMon_IsFainted_9
 000A:0689D5C0       j_j_BattleMon_GetID_16
 000A:0689D5C4       j_BattleMon_GetID_16
 000A:0689D5D0       PosPoke_CheckConfrontRec
 000A:0689D628       j_j_MainModule_IsAllyMonID
 000A:0689D62C       j_MainModule_IsAllyMonID
 000A:0689D638       j_j_PokeCon_GetPokeParam
 000A:0689D63C       j_PokeCon_GetPokeParam
 000A:0689D648       j_j_BattleMon_SetConfrontRec
 000A:0689D64C       j_BattleMon_SetConfrontRec
 000A:0689D658       j_j_PokeCon_GetPokeParam_0
 000A:0689D65C       j_PokeCon_GetPokeParam_0
 000A:0689D668       j_j_BattleMon_SetConfrontRec_0
 000A:0689D66C       j_BattleMon_SetConfrontRec_0
 000A:0689D678       PosPoke_Swap
 000A:0689D6CC       PosPoke_UpdateLastPos
 000A:0689D6E0       PosPoke_GetClientEmptyPos
 000A:0689D710       PosPoke_IsExist
 000A:0689D724       PosPoke_IsExistFrontPos
 000A:0689D740       j_MainModule_IsFrontPos
 000A:0689D750       PosPoke_GetPokeExistPos
 000A:0689D77C       PosPoke_GetPokeLastPos
 000A:0689D784       PosPoke_GetExistPokeID
 000A:0689D7D8       FIELD_EFFECT_EVENT_ADD_TABLE
 000A:0689D850       POS_EFFECT_EVENT_ADD_TABLE
 000A:0689D908       SIDE_EFFECT_EVENT_ADD_TABLE
 000A:0689E388       BATON_PASS_INHERITED_CONDITIONS
 000A:0689E42C       SKILL_SWAP_FAIL_ABILITIES
 000A:0689E432       ESCAPE_ITEMS
 000A:0689E438       COMBO_MOVES
 000A:0689E43E       DELAYED_HIT_MOVES
 000A:0689E444       GENESECT_DRIVES
 000A:0689E44C       PRESSURE_AFFECTED_MOVES
 000A:0689E456       MIMIC_FAIL_MOVES
 000A:0689E462       ENCORE_FAIL_MOVES
 000A:0689E46E       ROLE_PLAY_FAIL_ABILITIES
 000A:0689E47E       ITEM_URGE_FAIL_ITEMS
 000A:0689E490       DUSK_BALL_BOOSTED_TERRAINS
 000A:0689E4A4       ME_FIRST_FAIL_MOVES
 000A:0689E4B8       UNCALLABLE_MOVES
 000A:0689E4CE       SLEEP_TALK_UNCALLABLE_MOVES
 000A:0689E4FC       MENTAL_STATUS_TABLE
 000A:0689E514       ARCEUS_PLATES
 000A:0689E534       COPYCAT_UNCALLABLE_MOVES
 000A:0689E55C       ASSIST_UNCALLABLE_MOVES
 000A:0689E584       METRONOME_UNCALLABLE_MOVES
 000A:0689E5D8       MOLD_BREAKER_AFFECTED_ABILITIES
 000A:0689E648       MOVE_CONDITIONS_BY_ORDER
 000A:0689E938       aBtlvScdC
 0001:0689E960       SideStatus
 0001:068A0000       VRAM_I
